
bad.out:	file format Mach-O 64-bit x86-64


Disassembly of section __TEXT,__text:

0000000100001270 test3():
100001270: 55                          	pushq	%rbp
100001271: 48 89 e5                    	movq	%rsp, %rbp
100001274: 48 83 ec 10                 	subq	$16, %rsp
100001278: 48 b8 02 00 00 00 01 00 00 00       	movabsq	$4294967298, %rax
100001282: 48 89 45 f0                 	movq	%rax, -16(%rbp)
100001286: c7 45 fc 02 00 00 00        	movl	$2, -4(%rbp)
10000128d: 48 8d 7d f0                 	leaq	-16(%rbp), %rdi
100001291: 48 8d 75 fc                 	leaq	-4(%rbp), %rsi
100001295: e8 16 00 00 00              	callq	22 <__Z9testMatchI1AiZ5test3vE3$_0EvRKT_RKT0_T1_>
10000129a: 31 c0                       	xorl	%eax, %eax
10000129c: 48 83 c4 10                 	addq	$16, %rsp
1000012a0: 5d                          	popq	%rbp
1000012a1: c3                          	retq
1000012a2: 66 2e 0f 1f 84 00 00 00 00 00       	nopw	%cs:(%rax,%rax)
1000012ac: 0f 1f 40 00                 	nopl	(%rax)

00000001000012b0 void testMatch<A, int, test3()::$_0>(A const&, int const&, test3()::$_0):
1000012b0: 55                          	pushq	%rbp
1000012b1: 48 89 e5                    	movq	%rsp, %rbp
1000012b4: 53                          	pushq	%rbx
1000012b5: 50                          	pushq	%rax
1000012b6: 48 89 f3                    	movq	%rsi, %rbx
1000012b9: e8 32 00 00 00              	callq	50 <__ZZ5test3vENK3$_0clERK1A>
1000012be: 3b 03                       	cmpl	(%rbx), %eax
1000012c0: 48 8d 05 3f 0c 00 00        	leaq	3135(%rip), %rax
1000012c7: 48 8d 3d 30 0c 00 00        	leaq	3120(%rip), %rdi
1000012ce: 48 0f 44 f8                 	cmoveq	%rax, %rdi
1000012d2: 48 83 c4 08                 	addq	$8, %rsp
1000012d6: 5b                          	popq	%rbx
1000012d7: 5d                          	popq	%rbp
1000012d8: e9 bd 0b 00 00              	jmp	3005 <dyld_stub_binder+0x100001e9a>
1000012dd: 0f 1f 00                    	nopl	(%rax)

00000001000012e0 _main:
1000012e0: 55                          	pushq	%rbp
1000012e1: 48 89 e5                    	movq	%rsp, %rbp
1000012e4: e8 87 ff ff ff              	callq	-121 <__Z5test3v>
1000012e9: 31 c0                       	xorl	%eax, %eax
1000012eb: 5d                          	popq	%rbp
1000012ec: c3                          	retq
1000012ed: 0f 1f 00                    	nopl	(%rax)

00000001000012f0 test3()::$_0::operator()(A const&) const:
1000012f0: 55                          	pushq	%rbp
1000012f1: 48 89 e5                    	movq	%rsp, %rbp
1000012f4: 41 56                       	pushq	%r14
1000012f6: 53                          	pushq	%rbx
1000012f7: 48 81 ec a0 00 00 00        	subq	$160, %rsp
1000012fe: 48 89 fb                    	movq	%rdi, %rbx
100001301: 4c 8d b5 50 ff ff ff        	leaq	-176(%rbp), %r14
100001308: 4c 89 f7                    	movq	%r14, %rdi
10000130b: e8 f0 00 00 00              	callq	240 <__ZN2IdIiEC1Ev>
100001310: 48 8d bd 58 ff ff ff        	leaq	-168(%rbp), %rdi
100001317: e8 e4 00 00 00              	callq	228 <__ZN2IdIiEC1Ev>
10000131c: 48 89 df                    	movq	%rbx, %rdi
10000131f: e8 ec 00 00 00              	callq	236 <__Z5matchI1AE11MatchHelperIT_ERKS2_>
100001324: 48 89 45 b0                 	movq	%rax, -80(%rbp)
100001328: 4c 89 75 b8                 	movq	%r14, -72(%rbp)
10000132c: 48 c7 45 c8 00 00 00 00     	movq	$0, -56(%rbp)
100001334: 48 8d 7d c8                 	leaq	-56(%rbp), %rdi
100001338: 4c 89 f6                    	movq	%r14, %rsi
10000133b: e8 90 01 00 00              	callq	400 <__Z3appIM1Ai2IdIiEEDaRKT_RKT0_>
100001340: 48 89 45 80                 	movq	%rax, -128(%rbp)
100001344: 48 89 55 88                 	movq	%rdx, -120(%rbp)
100001348: 48 c7 45 d0 04 00 00 00     	movq	$4, -48(%rbp)
100001350: c7 45 e4 01 00 00 00        	movl	$1, -28(%rbp)
100001357: 48 8d 7d d0                 	leaq	-48(%rbp), %rdi
10000135b: 48 8d 75 e4                 	leaq	-28(%rbp), %rsi
10000135f: e8 9c 01 00 00              	callq	412 <__Z3appIM1AiiEDaRKT_RKT0_>
100001364: 48 89 45 90                 	movq	%rax, -112(%rbp)
100001368: 48 89 55 98                 	movq	%rdx, -104(%rbp)
10000136c: 48 8d 7d 80                 	leaq	-128(%rbp), %rdi
100001370: 48 8d 75 90                 	leaq	-112(%rbp), %rsi
100001374: e8 27 01 00 00              	callq	295 <__Z4and_IJ3AppIM1Ai2IdIiEES0_IS2_iEEEDaDpRKT_>
100001379: 48 89 85 70 ff ff ff        	movq	%rax, -144(%rbp)
100001380: 48 89 95 78 ff ff ff        	movq	%rdx, -136(%rbp)
100001387: 48 8d bd 70 ff ff ff        	leaq	-144(%rbp), %rdi
10000138e: e8 ed 00 00 00              	callq	237 <__Z7patternI3AndIJ3AppIM1Ai2IdIiEES1_IS3_iEEEE13PatternHelperIT_ERKSA_>
100001393: 48 89 45 c0                 	movq	%rax, -64(%rbp)
100001397: 48 8d 7d c0                 	leaq	-64(%rbp), %rdi
10000139b: 48 8d 75 b8                 	leaq	-72(%rbp), %rsi
10000139f: e8 8c 01 00 00              	callq	396 <__ZN13PatternHelperI3AndIJ3AppIM1Ai2IdIiEES1_IS3_iEEEEaSIZZ5test3vENK3$_0clERKS2_EUlOT_E_EEDaRKSE_>
1000013a4: 48 89 85 60 ff ff ff        	movq	%rax, -160(%rbp)
1000013ab: 48 89 95 68 ff ff ff        	movq	%rdx, -152(%rbp)
1000013b2: 48 8d 3d 0b 0b 00 00        	leaq	2827(%rip), %rdi
1000013b9: e8 a2 01 00 00              	callq	418 <__Z7patternI8WildCardE13PatternHelperIT_ERKS2_>
1000013be: 48 89 45 d8                 	movq	%rax, -40(%rbp)
1000013c2: 48 8d 7d d8                 	leaq	-40(%rbp), %rdi
1000013c6: 48 8d 75 e8                 	leaq	-24(%rbp), %rsi
1000013ca: e8 b1 01 00 00              	callq	433 <__ZN13PatternHelperI8WildCardEaSIZZ5test3vENK3$_0clERK1AEUlOT_E0_EEDaRKS7_>
1000013cf: 48 89 45 a0                 	movq	%rax, -96(%rbp)
1000013d3: 48 89 55 a8                 	movq	%rdx, -88(%rbp)
1000013d7: 48 8d 7d b0                 	leaq	-80(%rbp), %rdi
1000013db: 48 8d b5 60 ff ff ff        	leaq	-160(%rbp), %rsi
1000013e2: 48 8d 55 a0                 	leaq	-96(%rbp), %rdx
1000013e6: e8 45 00 00 00              	callq	69 <__ZN11MatchHelperI1AEclIJ11PatternPairI3AndIJ3AppIMS0_i2IdIiEES5_IS6_iEEEZZ5test3vENK3$_0clERKS0_EUlOT_E_ES3_I8WildCardZZ5test3vENKSC_clESE_EUlSG_E0_EEEEDaDpRKT_>
1000013eb: 48 81 c4 a0 00 00 00        	addq	$160, %rsp
1000013f2: 5b                          	popq	%rbx
1000013f3: 41 5e                       	popq	%r14
1000013f5: 5d                          	popq	%rbp
1000013f6: c3                          	retq
1000013f7: 66 0f 1f 84 00 00 00 00 00  	nopw	(%rax,%rax)

0000000100001400 Id<int>::Id():
100001400: 55                          	pushq	%rbp
100001401: 48 89 e5                    	movq	%rsp, %rbp
100001404: 5d                          	popq	%rbp
100001405: e9 a6 01 00 00              	jmp	422 <__ZN2IdIiEC2Ev>
10000140a: 66 0f 1f 44 00 00           	nopw	(%rax,%rax)

0000000100001410 MatchHelper<A> match<A>(A const&):
100001410: 55                          	pushq	%rbp
100001411: 48 89 e5                    	movq	%rsp, %rbp
100001414: 48 83 ec 10                 	subq	$16, %rsp
100001418: 48 89 fe                    	movq	%rdi, %rsi
10000141b: 48 8d 7d f8                 	leaq	-8(%rbp), %rdi
10000141f: e8 9c 01 00 00              	callq	412 <__ZN11MatchHelperI1AEC1ERKS0_>
100001424: 48 8b 45 f8                 	movq	-8(%rbp), %rax
100001428: 48 83 c4 10                 	addq	$16, %rsp
10000142c: 5d                          	popq	%rbp
10000142d: c3                          	retq
10000142e: 66 90                       	nop

0000000100001430 auto MatchHelper<A>::operator()<PatternPair<And<App<int A::*, Id<int> >, App<int A::*, int> >, test3()::$_0::operator()(A const&) const::'lambda'(auto&&)>, PatternPair<WildCard, test3()::$_0::operator()(A const&) const::'lambda0'(auto&&)> >(PatternPair<And<App<int A::*, Id<int> >, App<int A::*, int> >, test3()::$_0::operator()(A const&) const::'lambda'(auto&&)> const&, PatternPair<WildCard, test3()::$_0::operator()(A const&) const::'lambda0'(auto&&)> const&):
100001430: 55                          	pushq	%rbp
100001431: 48 89 e5                    	movq	%rsp, %rbp
100001434: 53                          	pushq	%rbx
100001435: 48 83 ec 18                 	subq	$24, %rsp
100001439: 48 89 d3                    	movq	%rdx, %rbx
10000143c: c7 45 f4 00 00 00 00        	movl	$0, -12(%rbp)
100001443: 48 89 7d e0                 	movq	%rdi, -32(%rbp)
100001447: 48 8d 45 f4                 	leaq	-12(%rbp), %rax
10000144b: 48 89 45 e8                 	movq	%rax, -24(%rbp)
10000144f: 48 8d 7d e0                 	leaq	-32(%rbp), %rdi
100001453: e8 88 01 00 00              	callq	392 <__ZZN11MatchHelperI1AEclIJ11PatternPairI3AndIJ3AppIMS0_i2IdIiEES5_IS6_iEEEZZ5test3vENK3$_0clERKS0_EUlOT_E_ES3_I8WildCardZZ5test3vENKSC_clESE_EUlSG_E0_EEEEDaDpRKT_ENKUlTyRKSF_E_clISI_EEbSS_>
100001458: 84 c0                       	testb	%al, %al
10000145a: 75 10                       	jne	16 <__ZN11MatchHelperI1AEclIJ11PatternPairI3AndIJ3AppIMS0_i2IdIiEES5_IS6_iEEEZZ5test3vENK3$_0clERKS0_EUlOT_E_ES3_I8WildCardZZ5test3vENKSC_clESE_EUlSG_E0_EEEEDaDpRKT_+0x3c>
10000145c: 48 8d 7d e0                 	leaq	-32(%rbp), %rdi
100001460: 48 89 de                    	movq	%rbx, %rsi
100001463: e8 b8 01 00 00              	callq	440 <__ZZN11MatchHelperI1AEclIJ11PatternPairI3AndIJ3AppIMS0_i2IdIiEES5_IS6_iEEEZZ5test3vENK3$_0clERKS0_EUlOT_E_ES3_I8WildCardZZ5test3vENKSC_clESE_EUlSG_E0_EEEEDaDpRKT_ENKUlTyRKSF_E_clISL_EEbSS_>
100001468: 84 c0                       	testb	%al, %al
10000146a: 74 0a                       	je	10 <__ZN11MatchHelperI1AEclIJ11PatternPairI3AndIJ3AppIMS0_i2IdIiEES5_IS6_iEEEZZ5test3vENK3$_0clERKS0_EUlOT_E_ES3_I8WildCardZZ5test3vENKSC_clESE_EUlSG_E0_EEEEDaDpRKT_+0x46>
10000146c: 8b 45 f4                    	movl	-12(%rbp), %eax
10000146f: 48 83 c4 18                 	addq	$24, %rsp
100001473: 5b                          	popq	%rbx
100001474: 5d                          	popq	%rbp
100001475: c3                          	retq
100001476: e8 c5 09 00 00              	callq	2501 <__ZN11MatchHelperI1AEclIJ11PatternPairI3AndIJ3AppIMS0_i2IdIiEES5_IS6_iEEEZZ5test3vENK3$_0clERKS0_EUlOT_E_ES3_I8WildCardZZ5test3vENKSC_clESE_EUlSG_E0_EEEEDaDpRKT_.cold.1>
10000147b: 0f 1f 44 00 00              	nopl	(%rax,%rax)

0000000100001480 PatternHelper<And<App<int A::*, Id<int> >, App<int A::*, int> > > pattern<And<App<int A::*, Id<int> >, App<int A::*, int> > >(And<App<int A::*, Id<int> >, App<int A::*, int> > const&):
100001480: 55                          	pushq	%rbp
100001481: 48 89 e5                    	movq	%rsp, %rbp
100001484: 48 83 ec 10                 	subq	$16, %rsp
100001488: 48 89 fe                    	movq	%rdi, %rsi
10000148b: 48 8d 7d f8                 	leaq	-8(%rbp), %rdi
10000148f: e8 1c 08 00 00              	callq	2076 <__ZN13PatternHelperI3AndIJ3AppIM1Ai2IdIiEES1_IS3_iEEEEC1ERKS8_>
100001494: 48 8b 45 f8                 	movq	-8(%rbp), %rax
100001498: 48 83 c4 10                 	addq	$16, %rsp
10000149c: 5d                          	popq	%rbp
10000149d: c3                          	retq
10000149e: 66 90                       	nop

00000001000014a0 auto and_<App<int A::*, Id<int> >, App<int A::*, int> >(App<int A::*, Id<int> > const&, App<int A::*, int> const&):
1000014a0: 55                          	pushq	%rbp
1000014a1: 48 89 e5                    	movq	%rsp, %rbp
1000014a4: 48 83 ec 10                 	subq	$16, %rsp
1000014a8: 48 89 f2                    	movq	%rsi, %rdx
1000014ab: 48 89 fe                    	movq	%rdi, %rsi
1000014ae: 48 8d 7d f0                 	leaq	-16(%rbp), %rdi
1000014b2: e8 19 08 00 00              	callq	2073 <__ZN3AndIJ3AppIM1Ai2IdIiEES0_IS2_iEEEC1ERKS5_RKS6_>
1000014b7: 48 8b 45 f0                 	movq	-16(%rbp), %rax
1000014bb: 48 8b 55 f8                 	movq	-8(%rbp), %rdx
1000014bf: 48 83 c4 10                 	addq	$16, %rsp
1000014c3: 5d                          	popq	%rbp
1000014c4: c3                          	retq
1000014c5: 66 2e 0f 1f 84 00 00 00 00 00       	nopw	%cs:(%rax,%rax)
1000014cf: 90                          	nop

00000001000014d0 auto app<int A::*, Id<int> >(int A::* const&, Id<int> const&):
1000014d0: 55                          	pushq	%rbp
1000014d1: 48 89 e5                    	movq	%rsp, %rbp
1000014d4: 48 83 ec 10                 	subq	$16, %rsp
1000014d8: 48 89 f2                    	movq	%rsi, %rdx
1000014db: 48 89 fe                    	movq	%rdi, %rsi
1000014de: 48 8d 7d f0                 	leaq	-16(%rbp), %rdi
1000014e2: e8 b9 08 00 00              	callq	2233 <__ZN3AppIM1Ai2IdIiEEC1ERKS1_RKS3_>
1000014e7: 48 8b 45 f0                 	movq	-16(%rbp), %rax
1000014eb: 48 8b 55 f8                 	movq	-8(%rbp), %rdx
1000014ef: 48 83 c4 10                 	addq	$16, %rsp
1000014f3: 5d                          	popq	%rbp
1000014f4: c3                          	retq
1000014f5: 66 2e 0f 1f 84 00 00 00 00 00       	nopw	%cs:(%rax,%rax)
1000014ff: 90                          	nop

0000000100001500 auto app<int A::*, int>(int A::* const&, int const&):
100001500: 55                          	pushq	%rbp
100001501: 48 89 e5                    	movq	%rsp, %rbp
100001504: 48 83 ec 10                 	subq	$16, %rsp
100001508: 48 89 f2                    	movq	%rsi, %rdx
10000150b: 48 89 fe                    	movq	%rdi, %rsi
10000150e: 48 8d 7d f0                 	leaq	-16(%rbp), %rdi
100001512: e8 a9 08 00 00              	callq	2217 <__ZN3AppIM1AiiEC1ERKS1_RKi>
100001517: 48 8b 45 f0                 	movq	-16(%rbp), %rax
10000151b: 48 8b 55 f8                 	movq	-8(%rbp), %rdx
10000151f: 48 83 c4 10                 	addq	$16, %rsp
100001523: 5d                          	popq	%rbp
100001524: c3                          	retq
100001525: 66 2e 0f 1f 84 00 00 00 00 00       	nopw	%cs:(%rax,%rax)
10000152f: 90                          	nop

0000000100001530 auto PatternHelper<And<App<int A::*, Id<int> >, App<int A::*, int> > >::operator=<test3()::$_0::operator()(A const&) const::'lambda'(auto&&)>(auto const&):
100001530: 55                          	pushq	%rbp
100001531: 48 89 e5                    	movq	%rsp, %rbp
100001534: 48 83 ec 10                 	subq	$16, %rsp
100001538: 48 89 f2                    	movq	%rsi, %rdx
10000153b: 48 8b 37                    	movq	(%rdi), %rsi
10000153e: 48 8d 7d f0                 	leaq	-16(%rbp), %rdi
100001542: e8 99 08 00 00              	callq	2201 <__ZN11PatternPairI3AndIJ3AppIM1Ai2IdIiEES1_IS3_iEEEZZ5test3vENK3$_0clERKS2_EUlOT_E_EC1ERKS8_RKSE_>
100001547: 48 8b 45 f0                 	movq	-16(%rbp), %rax
10000154b: 48 8b 55 f8                 	movq	-8(%rbp), %rdx
10000154f: 48 83 c4 10                 	addq	$16, %rsp
100001553: 5d                          	popq	%rbp
100001554: c3                          	retq
100001555: 66 2e 0f 1f 84 00 00 00 00 00       	nopw	%cs:(%rax,%rax)
10000155f: 90                          	nop

0000000100001560 PatternHelper<WildCard> pattern<WildCard>(WildCard const&):
100001560: 55                          	pushq	%rbp
100001561: 48 89 e5                    	movq	%rsp, %rbp
100001564: 48 83 ec 10                 	subq	$16, %rsp
100001568: 48 89 fe                    	movq	%rdi, %rsi
10000156b: 48 8d 7d f8                 	leaq	-8(%rbp), %rdi
10000156f: e8 8c 08 00 00              	callq	2188 <__ZN13PatternHelperI8WildCardEC1ERKS0_>
100001574: 48 8b 45 f8                 	movq	-8(%rbp), %rax
100001578: 48 83 c4 10                 	addq	$16, %rsp
10000157c: 5d                          	popq	%rbp
10000157d: c3                          	retq
10000157e: 66 90                       	nop

0000000100001580 auto PatternHelper<WildCard>::operator=<test3()::$_0::operator()(A const&) const::'lambda0'(auto&&)>(auto const&):
100001580: 55                          	pushq	%rbp
100001581: 48 89 e5                    	movq	%rsp, %rbp
100001584: 48 83 ec 10                 	subq	$16, %rsp
100001588: 48 89 f2                    	movq	%rsi, %rdx
10000158b: 48 8b 37                    	movq	(%rdi), %rsi
10000158e: 48 8d 7d f0                 	leaq	-16(%rbp), %rdi
100001592: e8 89 08 00 00              	callq	2185 <__ZN11PatternPairI8WildCardZZ5test3vENK3$_0clERK1AEUlOT_E0_EC1ERKS0_RKS7_>
100001597: 48 8b 45 f0                 	movq	-16(%rbp), %rax
10000159b: 48 8b 55 f8                 	movq	-8(%rbp), %rdx
10000159f: 48 83 c4 10                 	addq	$16, %rsp
1000015a3: 5d                          	popq	%rbp
1000015a4: c3                          	retq
1000015a5: 66 2e 0f 1f 84 00 00 00 00 00       	nopw	%cs:(%rax,%rax)
1000015af: 90                          	nop

00000001000015b0 Id<int>::Id():
1000015b0: 55                          	pushq	%rbp
1000015b1: 48 89 e5                    	movq	%rsp, %rbp
1000015b4: c6 47 04 00                 	movb	$0, 4(%rdi)
1000015b8: 5d                          	popq	%rbp
1000015b9: c3                          	retq
1000015ba: 66 0f 1f 44 00 00           	nopw	(%rax,%rax)

00000001000015c0 MatchHelper<A>::MatchHelper(A const&):
1000015c0: 55                          	pushq	%rbp
1000015c1: 48 89 e5                    	movq	%rsp, %rbp
1000015c4: 5d                          	popq	%rbp
1000015c5: e9 06 00 00 00              	jmp	6 <__ZN11MatchHelperI1AEC2ERKS0_>
1000015ca: 66 0f 1f 44 00 00           	nopw	(%rax,%rax)

00000001000015d0 MatchHelper<A>::MatchHelper(A const&):
1000015d0: 55                          	pushq	%rbp
1000015d1: 48 89 e5                    	movq	%rsp, %rbp
1000015d4: 48 89 37                    	movq	%rsi, (%rdi)
1000015d7: 5d                          	popq	%rbp
1000015d8: c3                          	retq
1000015d9: 0f 1f 80 00 00 00 00        	nopl	(%rax)

00000001000015e0 __ZZN11MatchHelperI1AEclIJ11PatternPairI3AndIJ3AppIMS0_i2IdIiEES5_IS6_iEEEZZ5test3vENK3$_0clERKS0_EUlOT_E_ES3_I8WildCardZZ5test3vENKSC_clESE_EUlSG_E0_EEEEDaDpRKT_ENKUlTyRKSF_E_clISI_EEbSS_:
1000015e0: 55                          	pushq	%rbp
1000015e1: 48 89 e5                    	movq	%rsp, %rbp
1000015e4: 41 56                       	pushq	%r14
1000015e6: 53                          	pushq	%rbx
1000015e7: 48 89 f3                    	movq	%rsi, %rbx
1000015ea: 49 89 fe                    	movq	%rdi, %r14
1000015ed: 48 8b 07                    	movq	(%rdi), %rax
1000015f0: 48 8b 30                    	movq	(%rax), %rsi
1000015f3: 48 89 df                    	movq	%rbx, %rdi
1000015f6: e8 65 00 00 00              	callq	101 <__ZNK11PatternPairI3AndIJ3AppIM1Ai2IdIiEES1_IS3_iEEEZZ5test3vENK3$_0clERKS2_EUlOT_E_E5matchIS2_EEbRKSC_>
1000015fb: 84 c0                       	testb	%al, %al
1000015fd: 74 12                       	je	18 <__ZZN11MatchHelperI1AEclIJ11PatternPairI3AndIJ3AppIMS0_i2IdIiEES5_IS6_iEEEZZ5test3vENK3$_0clERKS0_EUlOT_E_ES3_I8WildCardZZ5test3vENKSC_clESE_EUlSG_E0_EEEEDaDpRKT_ENKUlTyRKSF_E_clISI_EEbSS_+0x31>
1000015ff: 48 89 df                    	movq	%rbx, %rdi
100001602: e8 89 00 00 00              	callq	137 <__ZNK11PatternPairI3AndIJ3AppIM1Ai2IdIiEES1_IS3_iEEEZZ5test3vENK3$_0clERKS2_EUlOT_E_E7executeIS2_EEDaRKSC_>
100001607: 49 8b 4e 08                 	movq	8(%r14), %rcx
10000160b: 89 01                       	movl	%eax, (%rcx)
10000160d: b0 01                       	movb	$1, %al
10000160f: eb 02                       	jmp	2 <__ZZN11MatchHelperI1AEclIJ11PatternPairI3AndIJ3AppIMS0_i2IdIiEES5_IS6_iEEEZZ5test3vENK3$_0clERKS0_EUlOT_E_ES3_I8WildCardZZ5test3vENKSC_clESE_EUlSG_E0_EEEEDaDpRKT_ENKUlTyRKSF_E_clISI_EEbSS_+0x33>
100001611: 31 c0                       	xorl	%eax, %eax
100001613: 5b                          	popq	%rbx
100001614: 41 5e                       	popq	%r14
100001616: 5d                          	popq	%rbp
100001617: c3                          	retq
100001618: 0f 1f 84 00 00 00 00 00     	nopl	(%rax,%rax)

0000000100001620 __ZZN11MatchHelperI1AEclIJ11PatternPairI3AndIJ3AppIMS0_i2IdIiEES5_IS6_iEEEZZ5test3vENK3$_0clERKS0_EUlOT_E_ES3_I8WildCardZZ5test3vENKSC_clESE_EUlSG_E0_EEEEDaDpRKT_ENKUlTyRKSF_E_clISL_EEbSS_:
100001620: 55                          	pushq	%rbp
100001621: 48 89 e5                    	movq	%rsp, %rbp
100001624: 53                          	pushq	%rbx
100001625: 50                          	pushq	%rax
100001626: 48 89 f0                    	movq	%rsi, %rax
100001629: 48 89 fb                    	movq	%rdi, %rbx
10000162c: 48 8b 0f                    	movq	(%rdi), %rcx
10000162f: 48 8b 31                    	movq	(%rcx), %rsi
100001632: 48 89 c7                    	movq	%rax, %rdi
100001635: e8 06 06 00 00              	callq	1542 <__ZNK11PatternPairI8WildCardZZ5test3vENK3$_0clERK1AEUlOT_E0_E5matchIS2_EEbRKS5_>
10000163a: 84 c0                       	testb	%al, %al
10000163c: 74 0e                       	je	14 <__ZZN11MatchHelperI1AEclIJ11PatternPairI3AndIJ3AppIMS0_i2IdIiEES5_IS6_iEEEZZ5test3vENK3$_0clERKS0_EUlOT_E_ES3_I8WildCardZZ5test3vENKSC_clESE_EUlSG_E0_EEEEDaDpRKT_ENKUlTyRKSF_E_clISL_EEbSS_+0x2c>
10000163e: 48 8b 43 08                 	movq	8(%rbx), %rax
100001642: c7 00 ff ff ff ff           	movl	$4294967295, (%rax)
100001648: b0 01                       	movb	$1, %al
10000164a: eb 02                       	jmp	2 <__ZZN11MatchHelperI1AEclIJ11PatternPairI3AndIJ3AppIMS0_i2IdIiEES5_IS6_iEEEZZ5test3vENK3$_0clERKS0_EUlOT_E_ES3_I8WildCardZZ5test3vENKSC_clESE_EUlSG_E0_EEEEDaDpRKT_ENKUlTyRKSF_E_clISL_EEbSS_+0x2e>
10000164c: 31 c0                       	xorl	%eax, %eax
10000164e: 48 83 c4 08                 	addq	$8, %rsp
100001652: 5b                          	popq	%rbx
100001653: 5d                          	popq	%rbp
100001654: c3                          	retq
100001655: 66 2e 0f 1f 84 00 00 00 00 00       	nopw	%cs:(%rax,%rax)
10000165f: 90                          	nop

0000000100001660 bool PatternPair<And<App<int A::*, Id<int> >, App<int A::*, int> >, test3()::$_0::operator()(A const&) const::'lambda'(auto&&)>::match<A>(auto const&) const:
100001660: 55                          	pushq	%rbp
100001661: 48 89 e5                    	movq	%rsp, %rbp
100001664: 41 56                       	pushq	%r14
100001666: 53                          	pushq	%rbx
100001667: 49 89 f6                    	movq	%rsi, %r14
10000166a: 48 89 fb                    	movq	%rdi, %rbx
10000166d: 48 8b 3f                    	movq	(%rdi), %rdi
100001670: e8 2b 00 00 00              	callq	43 <__Z7resetIdI3AndIJ3AppIM1Ai2IdIiEES1_IS3_iEEEEvRKT_>
100001675: 48 8b 3b                    	movq	(%rbx), %rdi
100001678: 4c 89 f6                    	movq	%r14, %rsi
10000167b: 5b                          	popq	%rbx
10000167c: 41 5e                       	popq	%r14
10000167e: 5d                          	popq	%rbp
10000167f: e9 2c 00 00 00              	jmp	44 <__Z5matchI3AndIJ3AppIM1Ai2IdIiEES1_IS3_iEEES2_EbRKT_RKT0_>
100001684: 66 2e 0f 1f 84 00 00 00 00 00       	nopw	%cs:(%rax,%rax)
10000168e: 66 90                       	nop

0000000100001690 auto PatternPair<And<App<int A::*, Id<int> >, App<int A::*, int> >, test3()::$_0::operator()(A const&) const::'lambda'(auto&&)>::execute<A>(auto const&) const:
100001690: 55                          	pushq	%rbp
100001691: 48 89 e5                    	movq	%rsp, %rbp
100001694: 48 8b 7f 08                 	movq	8(%rdi), %rdi
100001698: 5d                          	popq	%rbp
100001699: e9 72 05 00 00              	jmp	1394 <__ZZZ5test3vENK3$_0clERK1AENKUlOT_E_clIS2_EEDaS4_>
10000169e: 66 90                       	nop

00000001000016a0 void resetId<And<App<int A::*, Id<int> >, App<int A::*, int> > >(And<App<int A::*, Id<int> >, App<int A::*, int> > const&):
1000016a0: 55                          	pushq	%rbp
1000016a1: 48 89 e5                    	movq	%rsp, %rbp
1000016a4: 5d                          	popq	%rbp
1000016a5: e9 16 00 00 00              	jmp	22 <__ZN13PatternTraitsI3AndIJ3AppIM1Ai2IdIiEES1_IS3_iEEEE7resetIdERKS8_>
1000016aa: 66 0f 1f 44 00 00           	nopw	(%rax,%rax)

00000001000016b0 bool match<And<App<int A::*, Id<int> >, App<int A::*, int> >, A>(And<App<int A::*, Id<int> >, App<int A::*, int> > const&, A const&):
1000016b0: 55                          	pushq	%rbp
1000016b1: 48 89 e5                    	movq	%rsp, %rbp
1000016b4: 5d                          	popq	%rbp
1000016b5: e9 76 02 00 00              	jmp	630 <__ZN13PatternTraitsI3AndIJ3AppIM1Ai2IdIiEES1_IS3_iEEEE5matchIS2_EEbRKS8_RKT_>
1000016ba: 66 0f 1f 44 00 00           	nopw	(%rax,%rax)

00000001000016c0 PatternTraits<And<App<int A::*, Id<int> >, App<int A::*, int> > >::resetId(And<App<int A::*, Id<int> >, App<int A::*, int> > const&):
1000016c0: 55                          	pushq	%rbp
1000016c1: 48 89 e5                    	movq	%rsp, %rbp
1000016c4: 48 83 ec 10                 	subq	$16, %rsp
1000016c8: e8 43 00 00 00              	callq	67 <__ZNK3AndIJ3AppIM1Ai2IdIiEES0_IS2_iEEE8patternsEv>
1000016cd: 48 8d 7d f8                 	leaq	-8(%rbp), %rdi
1000016d1: 48 89 c6                    	movq	%rax, %rsi
1000016d4: e8 07 00 00 00              	callq	7 <__ZNSt3__1L5applyIZN13PatternTraitsI3AndIJ3AppIM1Ai2IdIiEES3_IS5_iEEEE7resetIdERKSA_EUlRKS8_RKS9_E_RKNS_5tupleIJSF_SH_EEEEEDcOT_OT0_>
1000016d9: 48 83 c4 10                 	addq	$16, %rsp
1000016dd: 5d                          	popq	%rbp
1000016de: c3                          	retq
1000016df: 90                          	nop

00000001000016e0 decltype(auto) std::__1::apply<PatternTraits<And<App<int A::*, Id<int> >, App<int A::*, int> > >::resetId(And<App<int A::*, Id<int> >, App<int A::*, int> > const&)::'lambda'(App<int A::*, Id<int> > const&, App<int A::*, int> const&), std::__1::tuple<App<int A::*, Id<int> > const&, App<int A::*, int> const&> const&>(PatternTraits<And<App<int A::*, Id<int> >, App<int A::*, int> > >::resetId(And<App<int A::*, Id<int> >, App<int A::*, int> > const&)::'lambda'(App<int A::*, Id<int> > const&, App<int A::*, int> const&)&&, std::__1::tuple<App<int A::*, Id<int> > const&, App<int A::*, int> const&> const&):
1000016e0: 55                          	pushq	%rbp
1000016e1: 48 89 e5                    	movq	%rsp, %rbp
1000016e4: 41 56                       	pushq	%r14
1000016e6: 53                          	pushq	%rbx
1000016e7: 49 89 f6                    	movq	%rsi, %r14
1000016ea: e8 81 00 00 00              	callq	129 <__ZNSt3__1L7forwardIZN13PatternTraitsI3AndIJ3AppIM1Ai2IdIiEES3_IS5_iEEEE7resetIdERKSA_EUlRKS8_RKS9_E_EEOT_RNS_16remove_referenceISJ_E4typeE>
1000016ef: 48 89 c3                    	movq	%rax, %rbx
1000016f2: 4c 89 f7                    	movq	%r14, %rdi
1000016f5: e8 86 00 00 00              	callq	134 <__ZNSt3__1L7forwardIRKNS_5tupleIJRK3AppIM1Ai2IdIiEERKS2_IS4_iEEEEEEOT_RNS_16remove_referenceISG_E4typeE>
1000016fa: 48 89 df                    	movq	%rbx, %rdi
1000016fd: 48 89 c6                    	movq	%rax, %rsi
100001700: 5b                          	popq	%rbx
100001701: 41 5e                       	popq	%r14
100001703: 5d                          	popq	%rbp
100001704: e9 17 00 00 00              	jmp	23 <__ZNSt3__1L18__apply_tuple_implIZN13PatternTraitsI3AndIJ3AppIM1Ai2IdIiEES3_IS5_iEEEE7resetIdERKSA_EUlRKS8_RKS9_E_RKNS_5tupleIJSF_SH_EEEJLm0ELm1EEEEDcOT_OT0_NS_15__tuple_indicesIJXspT1_EEEE>
100001709: 0f 1f 80 00 00 00 00        	nopl	(%rax)

0000000100001710 And<App<int A::*, Id<int> >, App<int A::*, int> >::patterns() const:
100001710: 55                          	pushq	%rbp
100001711: 48 89 e5                    	movq	%rsp, %rbp
100001714: 48 89 f8                    	movq	%rdi, %rax
100001717: 5d                          	popq	%rbp
100001718: c3                          	retq
100001719: 0f 1f 80 00 00 00 00        	nopl	(%rax)

0000000100001720 decltype(auto) std::__1::__apply_tuple_impl<PatternTraits<And<App<int A::*, Id<int> >, App<int A::*, int> > >::resetId(And<App<int A::*, Id<int> >, App<int A::*, int> > const&)::'lambda'(App<int A::*, Id<int> > const&, App<int A::*, int> const&), std::__1::tuple<App<int A::*, Id<int> > const&, App<int A::*, int> const&> const&, 0ul, 1ul>(PatternTraits<And<App<int A::*, Id<int> >, App<int A::*, int> > >::resetId(And<App<int A::*, Id<int> >, App<int A::*, int> > const&)::'lambda'(App<int A::*, Id<int> > const&, App<int A::*, int> const&)&&, std::__1::tuple<App<int A::*, Id<int> > const&, App<int A::*, int> const&> const&, std::__1::__tuple_indices<0ul, 1ul>):
100001720: 55                          	pushq	%rbp
100001721: 48 89 e5                    	movq	%rsp, %rbp
100001724: 41 57                       	pushq	%r15
100001726: 41 56                       	pushq	%r14
100001728: 53                          	pushq	%rbx
100001729: 50                          	pushq	%rax
10000172a: 48 89 f3                    	movq	%rsi, %rbx
10000172d: e8 3e 00 00 00              	callq	62 <__ZNSt3__1L7forwardIZN13PatternTraitsI3AndIJ3AppIM1Ai2IdIiEES3_IS5_iEEEE7resetIdERKSA_EUlRKS8_RKS9_E_EEOT_RNS_16remove_referenceISJ_E4typeE>
100001732: 49 89 c6                    	movq	%rax, %r14
100001735: 48 89 df                    	movq	%rbx, %rdi
100001738: e8 43 00 00 00              	callq	67 <__ZNSt3__1L7forwardIRKNS_5tupleIJRK3AppIM1Ai2IdIiEERKS2_IS4_iEEEEEEOT_RNS_16remove_referenceISG_E4typeE>
10000173d: 48 89 c3                    	movq	%rax, %rbx
100001740: 48 89 c7                    	movq	%rax, %rdi
100001743: e8 98 00 00 00              	callq	152 <__ZNSt3__1L3getILm0EJRK3AppIM1Ai2IdIiEERKS1_IS3_iEEEERKNS_13tuple_elementIXT_ENS_5tupleIJDpT0_EEEE4typeERKSG_>
100001748: 49 89 c7                    	movq	%rax, %r15
10000174b: 48 89 df                    	movq	%rbx, %rdi
10000174e: e8 9d 00 00 00              	callq	157 <__ZNSt3__1L3getILm1EJRK3AppIM1Ai2IdIiEERKS1_IS3_iEEEERKNS_13tuple_elementIXT_ENS_5tupleIJDpT0_EEEE4typeERKSG_>
100001753: 4c 89 f7                    	movq	%r14, %rdi
100001756: 4c 89 fe                    	movq	%r15, %rsi
100001759: 48 89 c2                    	movq	%rax, %rdx
10000175c: 48 83 c4 08                 	addq	$8, %rsp
100001760: 5b                          	popq	%rbx
100001761: 41 5e                       	popq	%r14
100001763: 41 5f                       	popq	%r15
100001765: 5d                          	popq	%rbp
100001766: e9 25 00 00 00              	jmp	37 <__ZNSt3__1L18__invoke_constexprIZN13PatternTraitsI3AndIJ3AppIM1Ai2IdIiEES3_IS5_iEEEE7resetIdERKSA_EUlRKS8_RKS9_E_JSF_SH_EEEDTclclsr3std3__1E7forwardIT_Efp_Espclsr3std3__1E7forwardIT0_Efp0_EEEOSJ_DpOSK_>
10000176b: 0f 1f 44 00 00              	nopl	(%rax,%rax)

0000000100001770 PatternTraits<And<App<int A::*, Id<int> >, App<int A::*, int> > >::resetId(And<App<int A::*, Id<int> >, App<int A::*, int> > const&)::'lambda'(App<int A::*, Id<int> > const&, App<int A::*, int> const&)&& std::__1::forward<PatternTraits<And<App<int A::*, Id<int> >, App<int A::*, int> > >::resetId(And<App<int A::*, Id<int> >, App<int A::*, int> > const&)::'lambda'(App<int A::*, Id<int> > const&, App<int A::*, int> const&)>(std::__1::remove_reference<PatternTraits<And<App<int A::*, Id<int> >, App<int A::*, int> > >::resetId(And<App<int A::*, Id<int> >, App<int A::*, int> > const&)::'lambda'(App<int A::*, Id<int> > const&, App<int A::*, int> const&)>::type&):
100001770: 55                          	pushq	%rbp
100001771: 48 89 e5                    	movq	%rsp, %rbp
100001774: 48 89 f8                    	movq	%rdi, %rax
100001777: 5d                          	popq	%rbp
100001778: c3                          	retq
100001779: 0f 1f 80 00 00 00 00        	nopl	(%rax)

0000000100001780 std::__1::tuple<App<int A::*, Id<int> > const&, App<int A::*, int> const&> const& std::__1::forward<std::__1::tuple<App<int A::*, Id<int> > const&, App<int A::*, int> const&> const&>(std::__1::remove_reference<std::__1::tuple<App<int A::*, Id<int> > const&, App<int A::*, int> const&> const&>::type&):
100001780: 55                          	pushq	%rbp
100001781: 48 89 e5                    	movq	%rsp, %rbp
100001784: 48 89 f8                    	movq	%rdi, %rax
100001787: 5d                          	popq	%rbp
100001788: c3                          	retq
100001789: 0f 1f 80 00 00 00 00        	nopl	(%rax)

0000000100001790 decltype(std::__1::forward<PatternTraits<And<App<int A::*, Id<int> >, App<int A::*, int> > >::resetId(And<App<int A::*, Id<int> >, App<int A::*, int> > const&)::'lambda'(App<int A::*, Id<int> > const&, App<int A::*, int> const&)>(fp)(std::__1::forward<App<int A::*, Id<int> > const&>(fp0), std::__1::forward<App<int A::*, int> const&>(fp0))) std::__1::__invoke_constexpr<PatternTraits<And<App<int A::*, Id<int> >, App<int A::*, int> > >::resetId(And<App<int A::*, Id<int> >, App<int A::*, int> > const&)::'lambda'(App<int A::*, Id<int> > const&, App<int A::*, int> const&), App<int A::*, Id<int> > const&, App<int A::*, int> const&>(PatternTraits<And<App<int A::*, Id<int> >, App<int A::*, int> > >::resetId(And<App<int A::*, Id<int> >, App<int A::*, int> > const&)::'lambda'(App<int A::*, Id<int> > const&, App<int A::*, int> const&)&&, App<int A::*, Id<int> > const&, App<int A::*, int> const&):
100001790: 55                          	pushq	%rbp
100001791: 48 89 e5                    	movq	%rsp, %rbp
100001794: 41 57                       	pushq	%r15
100001796: 41 56                       	pushq	%r14
100001798: 53                          	pushq	%rbx
100001799: 50                          	pushq	%rax
10000179a: 49 89 d6                    	movq	%rdx, %r14
10000179d: 48 89 f3                    	movq	%rsi, %rbx
1000017a0: e8 cb ff ff ff              	callq	-53 <__ZNSt3__1L7forwardIZN13PatternTraitsI3AndIJ3AppIM1Ai2IdIiEES3_IS5_iEEEE7resetIdERKSA_EUlRKS8_RKS9_E_EEOT_RNS_16remove_referenceISJ_E4typeE>
1000017a5: 49 89 c7                    	movq	%rax, %r15
1000017a8: 48 89 df                    	movq	%rbx, %rdi
1000017ab: e8 70 00 00 00              	callq	112 <__ZNSt3__1L7forwardIRK3AppIM1Ai2IdIiEEEEOT_RNS_16remove_referenceIS9_E4typeE>
1000017b0: 48 89 c3                    	movq	%rax, %rbx
1000017b3: 4c 89 f7                    	movq	%r14, %rdi
1000017b6: e8 75 00 00 00              	callq	117 <__ZNSt3__1L7forwardIRK3AppIM1AiiEEEOT_RNS_16remove_referenceIS7_E4typeE>
1000017bb: 4c 89 ff                    	movq	%r15, %rdi
1000017be: 48 89 de                    	movq	%rbx, %rsi
1000017c1: 48 89 c2                    	movq	%rax, %rdx
1000017c4: 48 83 c4 08                 	addq	$8, %rsp
1000017c8: 5b                          	popq	%rbx
1000017c9: 41 5e                       	popq	%r14
1000017cb: 41 5f                       	popq	%r15
1000017cd: 5d                          	popq	%rbp
1000017ce: e9 2d 00 00 00              	jmp	45 <__ZZN13PatternTraitsI3AndIJ3AppIM1Ai2IdIiEES1_IS3_iEEEE7resetIdERKS8_ENKUlRKS6_RKS7_E_clESD_SF_>
1000017d3: 66 2e 0f 1f 84 00 00 00 00 00       	nopw	%cs:(%rax,%rax)
1000017dd: 0f 1f 00                    	nopl	(%rax)

00000001000017e0 std::__1::tuple_element<0ul, std::__1::tuple<App<int A::*, Id<int> > const&, App<int A::*, int> const&> >::type const& std::__1::get<0ul, App<int A::*, Id<int> > const&, App<int A::*, int> const&>(std::__1::tuple<App<int A::*, Id<int> > const&, App<int A::*, int> const&> const&):
1000017e0: 55                          	pushq	%rbp
1000017e1: 48 89 e5                    	movq	%rsp, %rbp
1000017e4: 5d                          	popq	%rbp
1000017e5: e9 26 01 00 00              	jmp	294 <__ZNKSt3__112__tuple_leafILm0ERK3AppIM1Ai2IdIiEELb0EE3getEv>
1000017ea: 66 0f 1f 44 00 00           	nopw	(%rax,%rax)

00000001000017f0 std::__1::tuple_element<1ul, std::__1::tuple<App<int A::*, Id<int> > const&, App<int A::*, int> const&> >::type const& std::__1::get<1ul, App<int A::*, Id<int> > const&, App<int A::*, int> const&>(std::__1::tuple<App<int A::*, Id<int> > const&, App<int A::*, int> const&> const&):
1000017f0: 55                          	pushq	%rbp
1000017f1: 48 89 e5                    	movq	%rsp, %rbp
1000017f4: 48 83 c7 08                 	addq	$8, %rdi
1000017f8: 5d                          	popq	%rbp
1000017f9: e9 22 01 00 00              	jmp	290 <__ZNKSt3__112__tuple_leafILm1ERK3AppIM1AiiELb0EE3getEv>
1000017fe: 66 90                       	nop

0000000100001800 PatternTraits<And<App<int A::*, Id<int> >, App<int A::*, int> > >::resetId(And<App<int A::*, Id<int> >, App<int A::*, int> > const&)::'lambda'(App<int A::*, Id<int> > const&, App<int A::*, int> const&)::operator()(App<int A::*, Id<int> > const&, App<int A::*, int> const&) const:
100001800: 55                          	pushq	%rbp
100001801: 48 89 e5                    	movq	%rsp, %rbp
100001804: 53                          	pushq	%rbx
100001805: 50                          	pushq	%rax
100001806: 48 89 d3                    	movq	%rdx, %rbx
100001809: 48 89 f7                    	movq	%rsi, %rdi
10000180c: e8 2f 00 00 00              	callq	47 <__Z7resetIdI3AppIM1Ai2IdIiEEEvRKT_>
100001811: 48 89 df                    	movq	%rbx, %rdi
100001814: 48 83 c4 08                 	addq	$8, %rsp
100001818: 5b                          	popq	%rbx
100001819: 5d                          	popq	%rbp
10000181a: e9 31 00 00 00              	jmp	49 <__Z7resetIdI3AppIM1AiiEEvRKT_>
10000181f: 90                          	nop

0000000100001820 App<int A::*, Id<int> > const& std::__1::forward<App<int A::*, Id<int> > const&>(std::__1::remove_reference<App<int A::*, Id<int> > const&>::type&):
100001820: 55                          	pushq	%rbp
100001821: 48 89 e5                    	movq	%rsp, %rbp
100001824: 48 89 f8                    	movq	%rdi, %rax
100001827: 5d                          	popq	%rbp
100001828: c3                          	retq
100001829: 0f 1f 80 00 00 00 00        	nopl	(%rax)

0000000100001830 App<int A::*, int> const& std::__1::forward<App<int A::*, int> const&>(std::__1::remove_reference<App<int A::*, int> const&>::type&):
100001830: 55                          	pushq	%rbp
100001831: 48 89 e5                    	movq	%rsp, %rbp
100001834: 48 89 f8                    	movq	%rdi, %rax
100001837: 5d                          	popq	%rbp
100001838: c3                          	retq
100001839: 0f 1f 80 00 00 00 00        	nopl	(%rax)

0000000100001840 void resetId<App<int A::*, Id<int> > >(App<int A::*, Id<int> > const&):
100001840: 55                          	pushq	%rbp
100001841: 48 89 e5                    	movq	%rsp, %rbp
100001844: 5d                          	popq	%rbp
100001845: e9 16 00 00 00              	jmp	22 <__ZN13PatternTraitsI3AppIM1Ai2IdIiEEE7resetIdERKS5_>
10000184a: 66 0f 1f 44 00 00           	nopw	(%rax,%rax)

0000000100001850 void resetId<App<int A::*, int> >(App<int A::*, int> const&):
100001850: 55                          	pushq	%rbp
100001851: 48 89 e5                    	movq	%rsp, %rbp
100001854: 5d                          	popq	%rbp
100001855: e9 66 00 00 00              	jmp	102 <__ZN13PatternTraitsI3AppIM1AiiEE7resetIdERKS3_>
10000185a: 66 0f 1f 44 00 00           	nopw	(%rax,%rax)

0000000100001860 PatternTraits<App<int A::*, Id<int> > >::resetId(App<int A::*, Id<int> > const&):
100001860: 55                          	pushq	%rbp
100001861: 48 89 e5                    	movq	%rsp, %rbp
100001864: e8 27 00 00 00              	callq	39 <__ZNK3AppIM1Ai2IdIiEE7patternEv>
100001869: 48 89 c7                    	movq	%rax, %rdi
10000186c: 5d                          	popq	%rbp
10000186d: e9 0e 00 00 00              	jmp	14 <__Z7resetIdI2IdIiEEvRKT_>
100001872: 66 2e 0f 1f 84 00 00 00 00 00       	nopw	%cs:(%rax,%rax)
10000187c: 0f 1f 40 00                 	nopl	(%rax)

0000000100001880 void resetId<Id<int> >(Id<int> const&):
100001880: 55                          	pushq	%rbp
100001881: 48 89 e5                    	movq	%rsp, %rbp
100001884: 5d                          	popq	%rbp
100001885: e9 16 00 00 00              	jmp	22 <__ZN13PatternTraitsI2IdIiEE7resetIdERKS1_>
10000188a: 66 0f 1f 44 00 00           	nopw	(%rax,%rax)

0000000100001890 App<int A::*, Id<int> >::pattern() const:
100001890: 55                          	pushq	%rbp
100001891: 48 89 e5                    	movq	%rsp, %rbp
100001894: 48 8b 47 08                 	movq	8(%rdi), %rax
100001898: 5d                          	popq	%rbp
100001899: c3                          	retq
10000189a: 66 0f 1f 44 00 00           	nopw	(%rax,%rax)

00000001000018a0 PatternTraits<Id<int> >::resetId(Id<int> const&):
1000018a0: 55                          	pushq	%rbp
1000018a1: 48 89 e5                    	movq	%rsp, %rbp
1000018a4: 5d                          	popq	%rbp
1000018a5: e9 06 00 00 00              	jmp	6 <__ZNK2IdIiE5resetEv>
1000018aa: 66 0f 1f 44 00 00           	nopw	(%rax,%rax)

00000001000018b0 Id<int>::reset() const:
1000018b0: 55                          	pushq	%rbp
1000018b1: 48 89 e5                    	movq	%rsp, %rbp
1000018b4: c6 47 04 00                 	movb	$0, 4(%rdi)
1000018b8: 5d                          	popq	%rbp
1000018b9: c3                          	retq
1000018ba: 66 0f 1f 44 00 00           	nopw	(%rax,%rax)

00000001000018c0 PatternTraits<App<int A::*, int> >::resetId(App<int A::*, int> const&):
1000018c0: 55                          	pushq	%rbp
1000018c1: 48 89 e5                    	movq	%rsp, %rbp
1000018c4: e8 27 00 00 00              	callq	39 <__ZNK3AppIM1AiiE7patternEv>
1000018c9: 48 89 c7                    	movq	%rax, %rdi
1000018cc: 5d                          	popq	%rbp
1000018cd: e9 0e 00 00 00              	jmp	14 <__Z7resetIdIiEvRKT_>
1000018d2: 66 2e 0f 1f 84 00 00 00 00 00       	nopw	%cs:(%rax,%rax)
1000018dc: 0f 1f 40 00                 	nopl	(%rax)

00000001000018e0 void resetId<int>(int const&):
1000018e0: 55                          	pushq	%rbp
1000018e1: 48 89 e5                    	movq	%rsp, %rbp
1000018e4: 5d                          	popq	%rbp
1000018e5: e9 16 00 00 00              	jmp	22 <__ZN13PatternTraitsIiE7resetIdERKi>
1000018ea: 66 0f 1f 44 00 00           	nopw	(%rax,%rax)

00000001000018f0 App<int A::*, int>::pattern() const:
1000018f0: 55                          	pushq	%rbp
1000018f1: 48 89 e5                    	movq	%rsp, %rbp
1000018f4: 48 8b 47 08                 	movq	8(%rdi), %rax
1000018f8: 5d                          	popq	%rbp
1000018f9: c3                          	retq
1000018fa: 66 0f 1f 44 00 00           	nopw	(%rax,%rax)

0000000100001900 PatternTraits<int>::resetId(int const&):
100001900: 55                          	pushq	%rbp
100001901: 48 89 e5                    	movq	%rsp, %rbp
100001904: 5d                          	popq	%rbp
100001905: c3                          	retq
100001906: 66 2e 0f 1f 84 00 00 00 00 00       	nopw	%cs:(%rax,%rax)

0000000100001910 std::__1::__tuple_leaf<0ul, App<int A::*, Id<int> > const&, false>::get() const:
100001910: 55                          	pushq	%rbp
100001911: 48 89 e5                    	movq	%rsp, %rbp
100001914: 48 8b 07                    	movq	(%rdi), %rax
100001917: 5d                          	popq	%rbp
100001918: c3                          	retq
100001919: 0f 1f 80 00 00 00 00        	nopl	(%rax)

0000000100001920 std::__1::__tuple_leaf<1ul, App<int A::*, int> const&, false>::get() const:
100001920: 55                          	pushq	%rbp
100001921: 48 89 e5                    	movq	%rsp, %rbp
100001924: 48 8b 07                    	movq	(%rdi), %rax
100001927: 5d                          	popq	%rbp
100001928: c3                          	retq
100001929: 0f 1f 80 00 00 00 00        	nopl	(%rax)

0000000100001930 bool PatternTraits<And<App<int A::*, Id<int> >, App<int A::*, int> > >::match<A>(And<App<int A::*, Id<int> >, App<int A::*, int> > const&, A const&):
100001930: 55                          	pushq	%rbp
100001931: 48 89 e5                    	movq	%rsp, %rbp
100001934: 48 83 ec 10                 	subq	$16, %rsp
100001938: 48 89 75 f8                 	movq	%rsi, -8(%rbp)
10000193c: e8 cf fd ff ff              	callq	-561 <__ZNK3AndIJ3AppIM1Ai2IdIiEES0_IS2_iEEE8patternsEv>
100001941: 48 8d 7d f8                 	leaq	-8(%rbp), %rdi
100001945: 48 89 c6                    	movq	%rax, %rsi
100001948: e8 13 00 00 00              	callq	19 <__ZNSt3__1L5applyIZN13PatternTraitsI3AndIJ3AppIM1Ai2IdIiEES3_IS5_iEEEE5matchIS4_EEbRKSA_RKT_EUlRKS8_RKS9_E_RKNS_5tupleIJSJ_SL_EEEEEDcOSF_OT0_>
10000194d: 48 83 c4 10                 	addq	$16, %rsp
100001951: 5d                          	popq	%rbp
100001952: c3                          	retq
100001953: 66 2e 0f 1f 84 00 00 00 00 00       	nopw	%cs:(%rax,%rax)
10000195d: 0f 1f 00                    	nopl	(%rax)

0000000100001960 decltype(auto) std::__1::apply<bool PatternTraits<And<App<int A::*, Id<int> >, App<int A::*, int> > >::match<A>(And<App<int A::*, Id<int> >, App<int A::*, int> > const&, A const&)::'lambda'(App<int A::*, Id<int> > const&, App<int A::*, int> const&), std::__1::tuple<App<int A::*, Id<int> > const&, App<int A::*, int> const&> const&>(A&&, std::__1::tuple<App<int A::*, Id<int> > const&, App<int A::*, int> const&> const&):
100001960: 55                          	pushq	%rbp
100001961: 48 89 e5                    	movq	%rsp, %rbp
100001964: 41 56                       	pushq	%r14
100001966: 53                          	pushq	%rbx
100001967: 49 89 f6                    	movq	%rsi, %r14
10000196a: e8 71 00 00 00              	callq	113 <__ZNSt3__1L7forwardIZN13PatternTraitsI3AndIJ3AppIM1Ai2IdIiEES3_IS5_iEEEE5matchIS4_EEbRKSA_RKT_EUlRKS8_RKS9_E_EEOSF_RNS_16remove_referenceISF_E4typeE>
10000196f: 48 89 c3                    	movq	%rax, %rbx
100001972: 4c 89 f7                    	movq	%r14, %rdi
100001975: e8 06 fe ff ff              	callq	-506 <__ZNSt3__1L7forwardIRKNS_5tupleIJRK3AppIM1Ai2IdIiEERKS2_IS4_iEEEEEEOT_RNS_16remove_referenceISG_E4typeE>
10000197a: 48 89 df                    	movq	%rbx, %rdi
10000197d: 48 89 c6                    	movq	%rax, %rsi
100001980: 5b                          	popq	%rbx
100001981: 41 5e                       	popq	%r14
100001983: 5d                          	popq	%rbp
100001984: e9 07 00 00 00              	jmp	7 <__ZNSt3__1L18__apply_tuple_implIZN13PatternTraitsI3AndIJ3AppIM1Ai2IdIiEES3_IS5_iEEEE5matchIS4_EEbRKSA_RKT_EUlRKS8_RKS9_E_RKNS_5tupleIJSJ_SL_EEEJLm0ELm1EEEEDcOSF_OT0_NS_15__tuple_indicesIJXspT1_EEEE>
100001989: 0f 1f 80 00 00 00 00        	nopl	(%rax)

0000000100001990 decltype(auto) std::__1::__apply_tuple_impl<bool PatternTraits<And<App<int A::*, Id<int> >, App<int A::*, int> > >::match<A>(And<App<int A::*, Id<int> >, App<int A::*, int> > const&, A const&)::'lambda'(App<int A::*, Id<int> > const&, App<int A::*, int> const&), std::__1::tuple<App<int A::*, Id<int> > const&, App<int A::*, int> const&> const&, 0ul, 1ul>(A&&, std::__1::tuple<App<int A::*, Id<int> > const&, App<int A::*, int> const&> const&, std::__1::__tuple_indices<0ul, 1ul>):
100001990: 55                          	pushq	%rbp
100001991: 48 89 e5                    	movq	%rsp, %rbp
100001994: 41 57                       	pushq	%r15
100001996: 41 56                       	pushq	%r14
100001998: 53                          	pushq	%rbx
100001999: 50                          	pushq	%rax
10000199a: 48 89 f3                    	movq	%rsi, %rbx
10000199d: e8 3e 00 00 00              	callq	62 <__ZNSt3__1L7forwardIZN13PatternTraitsI3AndIJ3AppIM1Ai2IdIiEES3_IS5_iEEEE5matchIS4_EEbRKSA_RKT_EUlRKS8_RKS9_E_EEOSF_RNS_16remove_referenceISF_E4typeE>
1000019a2: 49 89 c6                    	movq	%rax, %r14
1000019a5: 48 89 df                    	movq	%rbx, %rdi
1000019a8: e8 d3 fd ff ff              	callq	-557 <__ZNSt3__1L7forwardIRKNS_5tupleIJRK3AppIM1Ai2IdIiEERKS2_IS4_iEEEEEEOT_RNS_16remove_referenceISG_E4typeE>
1000019ad: 48 89 c3                    	movq	%rax, %rbx
1000019b0: 48 89 c7                    	movq	%rax, %rdi
1000019b3: e8 28 fe ff ff              	callq	-472 <__ZNSt3__1L3getILm0EJRK3AppIM1Ai2IdIiEERKS1_IS3_iEEEERKNS_13tuple_elementIXT_ENS_5tupleIJDpT0_EEEE4typeERKSG_>
1000019b8: 49 89 c7                    	movq	%rax, %r15
1000019bb: 48 89 df                    	movq	%rbx, %rdi
1000019be: e8 2d fe ff ff              	callq	-467 <__ZNSt3__1L3getILm1EJRK3AppIM1Ai2IdIiEERKS1_IS3_iEEEERKNS_13tuple_elementIXT_ENS_5tupleIJDpT0_EEEE4typeERKSG_>
1000019c3: 4c 89 f7                    	movq	%r14, %rdi
1000019c6: 4c 89 fe                    	movq	%r15, %rsi
1000019c9: 48 89 c2                    	movq	%rax, %rdx
1000019cc: 48 83 c4 08                 	addq	$8, %rsp
1000019d0: 5b                          	popq	%rbx
1000019d1: 41 5e                       	popq	%r14
1000019d3: 41 5f                       	popq	%r15
1000019d5: 5d                          	popq	%rbp
1000019d6: e9 15 00 00 00              	jmp	21 <__ZNSt3__1L18__invoke_constexprIZN13PatternTraitsI3AndIJ3AppIM1Ai2IdIiEES3_IS5_iEEEE5matchIS4_EEbRKSA_RKT_EUlRKS8_RKS9_E_JSJ_SL_EEEDTclclsr3std3__1E7forwardISF_Efp_Espclsr3std3__1E7forwardIT0_Efp0_EEEOSF_DpOSN_>
1000019db: 0f 1f 44 00 00              	nopl	(%rax,%rax)

00000001000019e0 A&& std::__1::forward<bool PatternTraits<And<App<int A::*, Id<int> >, App<int A::*, int> > >::match<A>(And<App<int A::*, Id<int> >, App<int A::*, int> > const&, A const&)::'lambda'(App<int A::*, Id<int> > const&, App<int A::*, int> const&)>(std::__1::remove_reference<A>::type&):
1000019e0: 55                          	pushq	%rbp
1000019e1: 48 89 e5                    	movq	%rsp, %rbp
1000019e4: 48 89 f8                    	movq	%rdi, %rax
1000019e7: 5d                          	popq	%rbp
1000019e8: c3                          	retq
1000019e9: 0f 1f 80 00 00 00 00        	nopl	(%rax)

00000001000019f0 decltype(std::__1::forward<A>(fp)(std::__1::forward<App<int A::*, Id<int> > const&>(fp0), std::__1::forward<App<int A::*, int> const&>(fp0))) std::__1::__invoke_constexpr<bool PatternTraits<And<App<int A::*, Id<int> >, App<int A::*, int> > >::match<A>(And<App<int A::*, Id<int> >, App<int A::*, int> > const&, A const&)::'lambda'(App<int A::*, Id<int> > const&, App<int A::*, int> const&), App<int A::*, Id<int> > const&, App<int A::*, int> const&>(A&&, App<int A::*, Id<int> > const&, App<int A::*, int> const&):
1000019f0: 55                          	pushq	%rbp
1000019f1: 48 89 e5                    	movq	%rsp, %rbp
1000019f4: 41 57                       	pushq	%r15
1000019f6: 41 56                       	pushq	%r14
1000019f8: 53                          	pushq	%rbx
1000019f9: 50                          	pushq	%rax
1000019fa: 49 89 d6                    	movq	%rdx, %r14
1000019fd: 48 89 f3                    	movq	%rsi, %rbx
100001a00: e8 db ff ff ff              	callq	-37 <__ZNSt3__1L7forwardIZN13PatternTraitsI3AndIJ3AppIM1Ai2IdIiEES3_IS5_iEEEE5matchIS4_EEbRKSA_RKT_EUlRKS8_RKS9_E_EEOSF_RNS_16remove_referenceISF_E4typeE>
100001a05: 49 89 c7                    	movq	%rax, %r15
100001a08: 48 89 df                    	movq	%rbx, %rdi
100001a0b: e8 10 fe ff ff              	callq	-496 <__ZNSt3__1L7forwardIRK3AppIM1Ai2IdIiEEEEOT_RNS_16remove_referenceIS9_E4typeE>
100001a10: 48 89 c3                    	movq	%rax, %rbx
100001a13: 4c 89 f7                    	movq	%r14, %rdi
100001a16: e8 15 fe ff ff              	callq	-491 <__ZNSt3__1L7forwardIRK3AppIM1AiiEEEOT_RNS_16remove_referenceIS7_E4typeE>
100001a1b: 4c 89 ff                    	movq	%r15, %rdi
100001a1e: 48 89 de                    	movq	%rbx, %rsi
100001a21: 48 89 c2                    	movq	%rax, %rdx
100001a24: 48 83 c4 08                 	addq	$8, %rsp
100001a28: 5b                          	popq	%rbx
100001a29: 41 5e                       	popq	%r14
100001a2b: 41 5f                       	popq	%r15
100001a2d: 5d                          	popq	%rbp
100001a2e: e9 0d 00 00 00              	jmp	13 <__ZZN13PatternTraitsI3AndIJ3AppIM1Ai2IdIiEES1_IS3_iEEEE5matchIS2_EEbRKS8_RKT_ENKUlRKS6_RKS7_E_clESH_SJ_>
100001a33: 66 2e 0f 1f 84 00 00 00 00 00       	nopw	%cs:(%rax,%rax)
100001a3d: 0f 1f 00                    	nopl	(%rax)

0000000100001a40 bool PatternTraits<And<App<int A::*, Id<int> >, App<int A::*, int> > >::match<A>(And<App<int A::*, Id<int> >, App<int A::*, int> > const&, A const&)::'lambda'(App<int A::*, Id<int> > const&, App<int A::*, int> const&)::operator()(App<int A::*, Id<int> > const&, App<int A::*, int> const&) const:
100001a40: 55                          	pushq	%rbp
100001a41: 48 89 e5                    	movq	%rsp, %rbp
100001a44: 41 56                       	pushq	%r14
100001a46: 53                          	pushq	%rbx
100001a47: 49 89 d6                    	movq	%rdx, %r14
100001a4a: 48 89 f0                    	movq	%rsi, %rax
100001a4d: 48 89 fb                    	movq	%rdi, %rbx
100001a50: 48 8b 37                    	movq	(%rdi), %rsi
100001a53: 48 89 c7                    	movq	%rax, %rdi
100001a56: e8 25 00 00 00              	callq	37 <__Z5matchI3AppIM1Ai2IdIiEES1_EbRKT_RKT0_>
100001a5b: 84 c0                       	testb	%al, %al
100001a5d: 74 0f                       	je	15 <__ZZN13PatternTraitsI3AndIJ3AppIM1Ai2IdIiEES1_IS3_iEEEE5matchIS2_EEbRKS8_RKT_ENKUlRKS6_RKS7_E_clESH_SJ_+0x2e>
100001a5f: 48 8b 33                    	movq	(%rbx), %rsi
100001a62: 4c 89 f7                    	movq	%r14, %rdi
100001a65: 5b                          	popq	%rbx
100001a66: 41 5e                       	popq	%r14
100001a68: 5d                          	popq	%rbp
100001a69: e9 22 00 00 00              	jmp	34 <__Z5matchI3AppIM1AiiES1_EbRKT_RKT0_>
100001a6e: 31 c0                       	xorl	%eax, %eax
100001a70: 5b                          	popq	%rbx
100001a71: 41 5e                       	popq	%r14
100001a73: 5d                          	popq	%rbp
100001a74: c3                          	retq
100001a75: 66 2e 0f 1f 84 00 00 00 00 00       	nopw	%cs:(%rax,%rax)
100001a7f: 90                          	nop

0000000100001a80 bool match<App<int A::*, Id<int> >, A>(App<int A::*, Id<int> > const&, A const&):
100001a80: 55                          	pushq	%rbp
100001a81: 48 89 e5                    	movq	%rsp, %rbp
100001a84: 5d                          	popq	%rbp
100001a85: e9 16 00 00 00              	jmp	22 <__ZN13PatternTraitsI3AppIM1Ai2IdIiEEE5matchIS1_EEbRKS5_RKT_>
100001a8a: 66 0f 1f 44 00 00           	nopw	(%rax,%rax)

0000000100001a90 bool match<App<int A::*, int>, A>(App<int A::*, int> const&, A const&):
100001a90: 55                          	pushq	%rbp
100001a91: 48 89 e5                    	movq	%rsp, %rbp
100001a94: 5d                          	popq	%rbp
100001a95: e9 06 01 00 00              	jmp	262 <__ZN13PatternTraitsI3AppIM1AiiEE5matchIS1_EEbRKS3_RKT_>
100001a9a: 66 0f 1f 44 00 00           	nopw	(%rax,%rax)

0000000100001aa0 bool PatternTraits<App<int A::*, Id<int> > >::match<A>(App<int A::*, Id<int> > const&, A const&):
100001aa0: 55                          	pushq	%rbp
100001aa1: 48 89 e5                    	movq	%rsp, %rbp
100001aa4: 41 57                       	pushq	%r15
100001aa6: 41 56                       	pushq	%r14
100001aa8: 53                          	pushq	%rbx
100001aa9: 50                          	pushq	%rax
100001aaa: 49 89 f6                    	movq	%rsi, %r14
100001aad: 48 89 fb                    	movq	%rdi, %rbx
100001ab0: e8 db fd ff ff              	callq	-549 <__ZNK3AppIM1Ai2IdIiEE7patternEv>
100001ab5: 49 89 c7                    	movq	%rax, %r15
100001ab8: 48 89 df                    	movq	%rbx, %rdi
100001abb: e8 60 00 00 00              	callq	96 <__ZNK3AppIM1Ai2IdIiEE5unaryEv>
100001ac0: 48 89 c7                    	movq	%rax, %rdi
100001ac3: 4c 89 f6                    	movq	%r14, %rsi
100001ac6: e8 25 00 00 00              	callq	37 <__ZNSt3__16invokeIRKM1AiJRKS1_EEENS_13invoke_resultIT_JDpT0_EE4typeEOS8_DpOS9_>
100001acb: 4c 89 ff                    	movq	%r15, %rdi
100001ace: 48 89 c6                    	movq	%rax, %rsi
100001ad1: 48 83 c4 08                 	addq	$8, %rsp
100001ad5: 5b                          	popq	%rbx
100001ad6: 41 5e                       	popq	%r14
100001ad8: 41 5f                       	popq	%r15
100001ada: 5d                          	popq	%rbp
100001adb: e9 00 00 00 00              	jmp	0 <__Z5matchI2IdIiEiEbRKT_RKT0_>

0000000100001ae0 bool match<Id<int>, int>(Id<int> const&, int const&):
100001ae0: 55                          	pushq	%rbp
100001ae1: 48 89 e5                    	movq	%rsp, %rbp
100001ae4: 5d                          	popq	%rbp
100001ae5: e9 46 00 00 00              	jmp	70 <__ZN13PatternTraitsI2IdIiEE5matchIiEEbRKS1_RKT_>
100001aea: 66 0f 1f 44 00 00           	nopw	(%rax,%rax)

0000000100001af0 std::__1::invoke_result<int A::* const&, A const&>::type std::__1::invoke<int A::* const&, A const&>(int A::* const&, A const&):
100001af0: 55                          	pushq	%rbp
100001af1: 48 89 e5                    	movq	%rsp, %rbp
100001af4: 41 56                       	pushq	%r14
100001af6: 53                          	pushq	%rbx
100001af7: 49 89 f6                    	movq	%rsi, %r14
100001afa: e8 81 00 00 00              	callq	129 <__ZNSt3__1L7forwardIRKM1AiEEOT_RNS_16remove_referenceIS5_E4typeE>
100001aff: 48 89 c3                    	movq	%rax, %rbx
100001b02: 4c 89 f7                    	movq	%r14, %rdi
100001b05: e8 86 00 00 00              	callq	134 <__ZNSt3__1L7forwardIRK1AEEOT_RNS_16remove_referenceIS4_E4typeE>
100001b0a: 48 89 df                    	movq	%rbx, %rdi
100001b0d: 48 89 c6                    	movq	%rax, %rsi
100001b10: 5b                          	popq	%rbx
100001b11: 41 5e                       	popq	%r14
100001b13: 5d                          	popq	%rbp
100001b14: e9 47 00 00 00              	jmp	71 <__ZNSt3__1L8__invokeIRKM1AiRKS1_vEEDTdsclsr3std3__1E7forwardIT0_Efp0_Efp_EOT_OS7_>
100001b19: 0f 1f 80 00 00 00 00        	nopl	(%rax)

0000000100001b20 App<int A::*, Id<int> >::unary() const:
100001b20: 55                          	pushq	%rbp
100001b21: 48 89 e5                    	movq	%rsp, %rbp
100001b24: 48 8b 07                    	movq	(%rdi), %rax
100001b27: 5d                          	popq	%rbp
100001b28: c3                          	retq
100001b29: 0f 1f 80 00 00 00 00        	nopl	(%rax)

0000000100001b30 bool PatternTraits<Id<int> >::match<int>(Id<int> const&, int const&):
100001b30: 55                          	pushq	%rbp
100001b31: 48 89 e5                    	movq	%rsp, %rbp
100001b34: 5d                          	popq	%rbp
100001b35: e9 06 00 00 00              	jmp	6 <__ZNK2IdIiE5matchIiEEbRKT_>
100001b3a: 66 0f 1f 44 00 00           	nopw	(%rax,%rax)

0000000100001b40 bool Id<int>::match<int>(int const&) const:
100001b40: 55                          	pushq	%rbp
100001b41: 48 89 e5                    	movq	%rsp, %rbp
100001b44: 80 7f 04 00                 	cmpb	$0, 4(%rdi)
100001b48: 74 09                       	je	9 <__ZNK2IdIiE5matchIiEEbRKT_+0x13>
100001b4a: 8b 07                       	movl	(%rdi), %eax
100001b4c: 3b 06                       	cmpl	(%rsi), %eax
100001b4e: 0f 94 c0                    	sete	%al
100001b51: 5d                          	popq	%rbp
100001b52: c3                          	retq
100001b53: c6 47 04 01                 	movb	$1, 4(%rdi)
100001b57: 8b 06                       	movl	(%rsi), %eax
100001b59: 89 07                       	movl	%eax, (%rdi)
100001b5b: b0 01                       	movb	$1, %al
100001b5d: 5d                          	popq	%rbp
100001b5e: c3                          	retq
100001b5f: 90                          	nop

0000000100001b60 decltype(std::__1::forward<A const&>(fp0).*fp) std::__1::__invoke<int A::* const&, A const&, void>(int A::* const&, A const&):
100001b60: 55                          	pushq	%rbp
100001b61: 48 89 e5                    	movq	%rsp, %rbp
100001b64: 53                          	pushq	%rbx
100001b65: 50                          	pushq	%rax
100001b66: 48 89 fb                    	movq	%rdi, %rbx
100001b69: 48 89 f7                    	movq	%rsi, %rdi
100001b6c: e8 1f 00 00 00              	callq	31 <__ZNSt3__1L7forwardIRK1AEEOT_RNS_16remove_referenceIS4_E4typeE>
100001b71: 48 03 03                    	addq	(%rbx), %rax
100001b74: 48 83 c4 08                 	addq	$8, %rsp
100001b78: 5b                          	popq	%rbx
100001b79: 5d                          	popq	%rbp
100001b7a: c3                          	retq
100001b7b: 0f 1f 44 00 00              	nopl	(%rax,%rax)

0000000100001b80 int A::* const& std::__1::forward<int A::* const&>(std::__1::remove_reference<int A::* const&>::type&):
100001b80: 55                          	pushq	%rbp
100001b81: 48 89 e5                    	movq	%rsp, %rbp
100001b84: 48 89 f8                    	movq	%rdi, %rax
100001b87: 5d                          	popq	%rbp
100001b88: c3                          	retq
100001b89: 0f 1f 80 00 00 00 00        	nopl	(%rax)

0000000100001b90 A const& std::__1::forward<A const&>(std::__1::remove_reference<A const&>::type&):
100001b90: 55                          	pushq	%rbp
100001b91: 48 89 e5                    	movq	%rsp, %rbp
100001b94: 48 89 f8                    	movq	%rdi, %rax
100001b97: 5d                          	popq	%rbp
100001b98: c3                          	retq
100001b99: 0f 1f 80 00 00 00 00        	nopl	(%rax)

0000000100001ba0 bool PatternTraits<App<int A::*, int> >::match<A>(App<int A::*, int> const&, A const&):
100001ba0: 55                          	pushq	%rbp
100001ba1: 48 89 e5                    	movq	%rsp, %rbp
100001ba4: 41 57                       	pushq	%r15
100001ba6: 41 56                       	pushq	%r14
100001ba8: 53                          	pushq	%rbx
100001ba9: 50                          	pushq	%rax
100001baa: 49 89 f6                    	movq	%rsi, %r14
100001bad: 48 89 fb                    	movq	%rdi, %rbx
100001bb0: e8 3b fd ff ff              	callq	-709 <__ZNK3AppIM1AiiE7patternEv>
100001bb5: 49 89 c7                    	movq	%rax, %r15
100001bb8: 48 89 df                    	movq	%rbx, %rdi
100001bbb: e8 30 00 00 00              	callq	48 <__ZNK3AppIM1AiiE5unaryEv>
100001bc0: 48 89 c7                    	movq	%rax, %rdi
100001bc3: 4c 89 f6                    	movq	%r14, %rsi
100001bc6: e8 25 ff ff ff              	callq	-219 <__ZNSt3__16invokeIRKM1AiJRKS1_EEENS_13invoke_resultIT_JDpT0_EE4typeEOS8_DpOS9_>
100001bcb: 4c 89 ff                    	movq	%r15, %rdi
100001bce: 48 89 c6                    	movq	%rax, %rsi
100001bd1: 48 83 c4 08                 	addq	$8, %rsp
100001bd5: 5b                          	popq	%rbx
100001bd6: 41 5e                       	popq	%r14
100001bd8: 41 5f                       	popq	%r15
100001bda: 5d                          	popq	%rbp
100001bdb: e9 00 00 00 00              	jmp	0 <__Z5matchIiiEbRKT_RKT0_>

0000000100001be0 bool match<int, int>(int const&, int const&):
100001be0: 55                          	pushq	%rbp
100001be1: 48 89 e5                    	movq	%rsp, %rbp
100001be4: 5d                          	popq	%rbp
100001be5: e9 16 00 00 00              	jmp	22 <__ZN13PatternTraitsIiE5matchIiEEbRKiRKT_>
100001bea: 66 0f 1f 44 00 00           	nopw	(%rax,%rax)

0000000100001bf0 App<int A::*, int>::unary() const:
100001bf0: 55                          	pushq	%rbp
100001bf1: 48 89 e5                    	movq	%rsp, %rbp
100001bf4: 48 8b 07                    	movq	(%rdi), %rax
100001bf7: 5d                          	popq	%rbp
100001bf8: c3                          	retq
100001bf9: 0f 1f 80 00 00 00 00        	nopl	(%rax)

0000000100001c00 bool PatternTraits<int>::match<int>(int const&, int const&):
100001c00: 55                          	pushq	%rbp
100001c01: 48 89 e5                    	movq	%rsp, %rbp
100001c04: 8b 07                       	movl	(%rdi), %eax
100001c06: 3b 06                       	cmpl	(%rsi), %eax
100001c08: 0f 94 c0                    	sete	%al
100001c0b: 5d                          	popq	%rbp
100001c0c: c3                          	retq
100001c0d: 0f 1f 00                    	nopl	(%rax)

0000000100001c10 auto test3()::$_0::operator()(A const&) const::'lambda'(auto&&)::operator()<A const&>(auto&&) const:
100001c10: 55                          	pushq	%rbp
100001c11: 48 89 e5                    	movq	%rsp, %rbp
100001c14: 48 8b 3f                    	movq	(%rdi), %rdi
100001c17: e8 04 00 00 00              	callq	4 <__ZNK2IdIiE5valueEv>
100001c1c: 8b 00                       	movl	(%rax), %eax
100001c1e: 5d                          	popq	%rbp
100001c1f: c3                          	retq

0000000100001c20 Id<int>::value() const:
100001c20: 55                          	pushq	%rbp
100001c21: 48 89 e5                    	movq	%rsp, %rbp
100001c24: 80 7f 04 01                 	cmpb	$1, 4(%rdi)
100001c28: 75 05                       	jne	5 <__ZNK2IdIiE5valueEv+0xf>
100001c2a: 48 89 f8                    	movq	%rdi, %rax
100001c2d: 5d                          	popq	%rbp
100001c2e: c3                          	retq
100001c2f: e8 3c 02 00 00              	callq	572 <__ZNK2IdIiE5valueEv.cold.1>
100001c34: 66 2e 0f 1f 84 00 00 00 00 00       	nopw	%cs:(%rax,%rax)
100001c3e: 66 90                       	nop

0000000100001c40 bool PatternPair<WildCard, test3()::$_0::operator()(A const&) const::'lambda0'(auto&&)>::match<A>(auto const&) const:
100001c40: 55                          	pushq	%rbp
100001c41: 48 89 e5                    	movq	%rsp, %rbp
100001c44: 41 56                       	pushq	%r14
100001c46: 53                          	pushq	%rbx
100001c47: 49 89 f6                    	movq	%rsi, %r14
100001c4a: 48 89 fb                    	movq	%rdi, %rbx
100001c4d: 48 8b 3f                    	movq	(%rdi), %rdi
100001c50: e8 1b 00 00 00              	callq	27 <__Z7resetIdI8WildCardEvRKT_>
100001c55: 48 8b 3b                    	movq	(%rbx), %rdi
100001c58: 4c 89 f6                    	movq	%r14, %rsi
100001c5b: 5b                          	popq	%rbx
100001c5c: 41 5e                       	popq	%r14
100001c5e: 5d                          	popq	%rbp
100001c5f: e9 1c 00 00 00              	jmp	28 <__Z5matchI8WildCard1AEbRKT_RKT0_>
100001c64: 66 2e 0f 1f 84 00 00 00 00 00       	nopw	%cs:(%rax,%rax)
100001c6e: 66 90                       	nop

0000000100001c70 void resetId<WildCard>(WildCard const&):
100001c70: 55                          	pushq	%rbp
100001c71: 48 89 e5                    	movq	%rsp, %rbp
100001c74: 5d                          	popq	%rbp
100001c75: e9 16 00 00 00              	jmp	22 <__ZN13PatternTraitsI8WildCardE7resetIdERKS0_>
100001c7a: 66 0f 1f 44 00 00           	nopw	(%rax,%rax)

0000000100001c80 bool match<WildCard, A>(WildCard const&, A const&):
100001c80: 55                          	pushq	%rbp
100001c81: 48 89 e5                    	movq	%rsp, %rbp
100001c84: 5d                          	popq	%rbp
100001c85: e9 16 00 00 00              	jmp	22 <__ZN13PatternTraitsI8WildCardE5matchI1AEEbRKS0_RKT_>
100001c8a: 66 0f 1f 44 00 00           	nopw	(%rax,%rax)

0000000100001c90 PatternTraits<WildCard>::resetId(WildCard const&):
100001c90: 55                          	pushq	%rbp
100001c91: 48 89 e5                    	movq	%rsp, %rbp
100001c94: 5d                          	popq	%rbp
100001c95: c3                          	retq
100001c96: 66 2e 0f 1f 84 00 00 00 00 00       	nopw	%cs:(%rax,%rax)

0000000100001ca0 bool PatternTraits<WildCard>::match<A>(WildCard const&, A const&):
100001ca0: 55                          	pushq	%rbp
100001ca1: 48 89 e5                    	movq	%rsp, %rbp
100001ca4: b0 01                       	movb	$1, %al
100001ca6: 5d                          	popq	%rbp
100001ca7: c3                          	retq
100001ca8: 0f 1f 84 00 00 00 00 00     	nopl	(%rax,%rax)

0000000100001cb0 PatternHelper<And<App<int A::*, Id<int> >, App<int A::*, int> > >::PatternHelper(And<App<int A::*, Id<int> >, App<int A::*, int> > const&):
100001cb0: 55                          	pushq	%rbp
100001cb1: 48 89 e5                    	movq	%rsp, %rbp
100001cb4: 5d                          	popq	%rbp
100001cb5: e9 06 00 00 00              	jmp	6 <__ZN13PatternHelperI3AndIJ3AppIM1Ai2IdIiEES1_IS3_iEEEEC2ERKS8_>
100001cba: 66 0f 1f 44 00 00           	nopw	(%rax,%rax)

0000000100001cc0 PatternHelper<And<App<int A::*, Id<int> >, App<int A::*, int> > >::PatternHelper(And<App<int A::*, Id<int> >, App<int A::*, int> > const&):
100001cc0: 55                          	pushq	%rbp
100001cc1: 48 89 e5                    	movq	%rsp, %rbp
100001cc4: 48 89 37                    	movq	%rsi, (%rdi)
100001cc7: 5d                          	popq	%rbp
100001cc8: c3                          	retq
100001cc9: 0f 1f 80 00 00 00 00        	nopl	(%rax)

0000000100001cd0 And<App<int A::*, Id<int> >, App<int A::*, int> >::And(App<int A::*, Id<int> > const&, App<int A::*, int> const&):
100001cd0: 55                          	pushq	%rbp
100001cd1: 48 89 e5                    	movq	%rsp, %rbp
100001cd4: 5d                          	popq	%rbp
100001cd5: e9 06 00 00 00              	jmp	6 <__ZN3AndIJ3AppIM1Ai2IdIiEES0_IS2_iEEEC2ERKS5_RKS6_>
100001cda: 66 0f 1f 44 00 00           	nopw	(%rax,%rax)

0000000100001ce0 And<App<int A::*, Id<int> >, App<int A::*, int> >::And(App<int A::*, Id<int> > const&, App<int A::*, int> const&):
100001ce0: 55                          	pushq	%rbp
100001ce1: 48 89 e5                    	movq	%rsp, %rbp
100001ce4: 5d                          	popq	%rbp
100001ce5: e9 06 00 00 00              	jmp	6 <__ZNSt3__15tupleIJRK3AppIM1Ai2IdIiEERKS1_IS3_iEEEC1ILb1ELb0EEES8_SB_>
100001cea: 66 0f 1f 44 00 00           	nopw	(%rax,%rax)

0000000100001cf0 std::__1::tuple<App<int A::*, Id<int> > const&, App<int A::*, int> const&>::tuple<true, false>(App<int A::*, Id<int> > const&, App<int A::*, int> const&):
100001cf0: 55                          	pushq	%rbp
100001cf1: 48 89 e5                    	movq	%rsp, %rbp
100001cf4: 5d                          	popq	%rbp
100001cf5: e9 06 00 00 00              	jmp	6 <__ZNSt3__15tupleIJRK3AppIM1Ai2IdIiEERKS1_IS3_iEEEC2ILb1ELb0EEES8_SB_>
100001cfa: 66 0f 1f 44 00 00           	nopw	(%rax,%rax)

0000000100001d00 std::__1::tuple<App<int A::*, Id<int> > const&, App<int A::*, int> const&>::tuple<true, false>(App<int A::*, Id<int> > const&, App<int A::*, int> const&):
100001d00: 55                          	pushq	%rbp
100001d01: 48 89 e5                    	movq	%rsp, %rbp
100001d04: 5d                          	popq	%rbp
100001d05: e9 06 00 00 00              	jmp	6 <__ZNSt3__112__tuple_implINS_15__tuple_indicesIJLm0ELm1EEEEJRK3AppIM1Ai2IdIiEERKS3_IS5_iEEEC1IJLm0ELm1EEJSA_SD_EJEJEJSA_SD_EEENS1_IJXspT_EEEENS_13__tuple_typesIJDpT0_EEENS1_IJXspT1_EEEENSH_IJDpT2_EEEDpOT3_>
100001d0a: 66 0f 1f 44 00 00           	nopw	(%rax,%rax)

0000000100001d10 std::__1::__tuple_impl<std::__1::__tuple_indices<0ul, 1ul>, App<int A::*, Id<int> > const&, App<int A::*, int> const&>::__tuple_impl<0ul, 1ul, App<int A::*, Id<int> > const&, App<int A::*, int> const&, App<int A::*, Id<int> > const&, App<int A::*, int> const&>(std::__1::__tuple_indices<0ul, 1ul>, std::__1::__tuple_types<App<int A::*, Id<int> > const&, App<int A::*, int> const&>, std::__1::__tuple_indices<>, std::__1::__tuple_types<>, App<int A::*, Id<int> > const&, App<int A::*, int> const&):
100001d10: 55                          	pushq	%rbp
100001d11: 48 89 e5                    	movq	%rsp, %rbp
100001d14: 5d                          	popq	%rbp
100001d15: e9 06 00 00 00              	jmp	6 <__ZNSt3__112__tuple_implINS_15__tuple_indicesIJLm0ELm1EEEEJRK3AppIM1Ai2IdIiEERKS3_IS5_iEEEC2IJLm0ELm1EEJSA_SD_EJEJEJSA_SD_EEENS1_IJXspT_EEEENS_13__tuple_typesIJDpT0_EEENS1_IJXspT1_EEEENSH_IJDpT2_EEEDpOT3_>
100001d1a: 66 0f 1f 44 00 00           	nopw	(%rax,%rax)

0000000100001d20 std::__1::__tuple_impl<std::__1::__tuple_indices<0ul, 1ul>, App<int A::*, Id<int> > const&, App<int A::*, int> const&>::__tuple_impl<0ul, 1ul, App<int A::*, Id<int> > const&, App<int A::*, int> const&, App<int A::*, Id<int> > const&, App<int A::*, int> const&>(std::__1::__tuple_indices<0ul, 1ul>, std::__1::__tuple_types<App<int A::*, Id<int> > const&, App<int A::*, int> const&>, std::__1::__tuple_indices<>, std::__1::__tuple_types<>, App<int A::*, Id<int> > const&, App<int A::*, int> const&):
100001d20: 55                          	pushq	%rbp
100001d21: 48 89 e5                    	movq	%rsp, %rbp
100001d24: 41 56                       	pushq	%r14
100001d26: 53                          	pushq	%rbx
100001d27: 49 89 d6                    	movq	%rdx, %r14
100001d2a: 48 89 fb                    	movq	%rdi, %rbx
100001d2d: 48 89 f7                    	movq	%rsi, %rdi
100001d30: e8 eb fa ff ff              	callq	-1301 <__ZNSt3__1L7forwardIRK3AppIM1Ai2IdIiEEEEOT_RNS_16remove_referenceIS9_E4typeE>
100001d35: 48 89 df                    	movq	%rbx, %rdi
100001d38: 48 89 c6                    	movq	%rax, %rsi
100001d3b: e8 20 00 00 00              	callq	32 <__ZNSt3__112__tuple_leafILm0ERK3AppIM1Ai2IdIiEELb0EEC2IS8_vEEOT_>
100001d40: 48 83 c3 08                 	addq	$8, %rbx
100001d44: 4c 89 f7                    	movq	%r14, %rdi
100001d47: e8 e4 fa ff ff              	callq	-1308 <__ZNSt3__1L7forwardIRK3AppIM1AiiEEEOT_RNS_16remove_referenceIS7_E4typeE>
100001d4c: 48 89 df                    	movq	%rbx, %rdi
100001d4f: 48 89 c6                    	movq	%rax, %rsi
100001d52: 5b                          	popq	%rbx
100001d53: 41 5e                       	popq	%r14
100001d55: 5d                          	popq	%rbp
100001d56: e9 25 00 00 00              	jmp	37 <__ZNSt3__112__tuple_leafILm1ERK3AppIM1AiiELb0EEC2IS6_vEEOT_>
100001d5b: 0f 1f 44 00 00              	nopl	(%rax,%rax)

0000000100001d60 std::__1::__tuple_leaf<0ul, App<int A::*, Id<int> > const&, false>::__tuple_leaf<App<int A::*, Id<int> > const&, void>(App<int A::*, Id<int> > const&):
100001d60: 55                          	pushq	%rbp
100001d61: 48 89 e5                    	movq	%rsp, %rbp
100001d64: 53                          	pushq	%rbx
100001d65: 50                          	pushq	%rax
100001d66: 48 89 fb                    	movq	%rdi, %rbx
100001d69: 48 89 f7                    	movq	%rsi, %rdi
100001d6c: e8 af fa ff ff              	callq	-1361 <__ZNSt3__1L7forwardIRK3AppIM1Ai2IdIiEEEEOT_RNS_16remove_referenceIS9_E4typeE>
100001d71: 48 89 03                    	movq	%rax, (%rbx)
100001d74: 48 83 c4 08                 	addq	$8, %rsp
100001d78: 5b                          	popq	%rbx
100001d79: 5d                          	popq	%rbp
100001d7a: c3                          	retq
100001d7b: 0f 1f 44 00 00              	nopl	(%rax,%rax)

0000000100001d80 std::__1::__tuple_leaf<1ul, App<int A::*, int> const&, false>::__tuple_leaf<App<int A::*, int> const&, void>(App<int A::*, int> const&):
100001d80: 55                          	pushq	%rbp
100001d81: 48 89 e5                    	movq	%rsp, %rbp
100001d84: 53                          	pushq	%rbx
100001d85: 50                          	pushq	%rax
100001d86: 48 89 fb                    	movq	%rdi, %rbx
100001d89: 48 89 f7                    	movq	%rsi, %rdi
100001d8c: e8 9f fa ff ff              	callq	-1377 <__ZNSt3__1L7forwardIRK3AppIM1AiiEEEOT_RNS_16remove_referenceIS7_E4typeE>
100001d91: 48 89 03                    	movq	%rax, (%rbx)
100001d94: 48 83 c4 08                 	addq	$8, %rsp
100001d98: 5b                          	popq	%rbx
100001d99: 5d                          	popq	%rbp
100001d9a: c3                          	retq
100001d9b: 0f 1f 44 00 00              	nopl	(%rax,%rax)

0000000100001da0 App<int A::*, Id<int> >::App(int A::* const&, Id<int> const&):
100001da0: 55                          	pushq	%rbp
100001da1: 48 89 e5                    	movq	%rsp, %rbp
100001da4: 5d                          	popq	%rbp
100001da5: e9 06 00 00 00              	jmp	6 <__ZN3AppIM1Ai2IdIiEEC2ERKS1_RKS3_>
100001daa: 66 0f 1f 44 00 00           	nopw	(%rax,%rax)

0000000100001db0 App<int A::*, Id<int> >::App(int A::* const&, Id<int> const&):
100001db0: 55                          	pushq	%rbp
100001db1: 48 89 e5                    	movq	%rsp, %rbp
100001db4: 48 89 37                    	movq	%rsi, (%rdi)
100001db7: 48 89 57 08                 	movq	%rdx, 8(%rdi)
100001dbb: 5d                          	popq	%rbp
100001dbc: c3                          	retq
100001dbd: 0f 1f 00                    	nopl	(%rax)

0000000100001dc0 App<int A::*, int>::App(int A::* const&, int const&):
100001dc0: 55                          	pushq	%rbp
100001dc1: 48 89 e5                    	movq	%rsp, %rbp
100001dc4: 5d                          	popq	%rbp
100001dc5: e9 06 00 00 00              	jmp	6 <__ZN3AppIM1AiiEC2ERKS1_RKi>
100001dca: 66 0f 1f 44 00 00           	nopw	(%rax,%rax)

0000000100001dd0 App<int A::*, int>::App(int A::* const&, int const&):
100001dd0: 55                          	pushq	%rbp
100001dd1: 48 89 e5                    	movq	%rsp, %rbp
100001dd4: 48 89 37                    	movq	%rsi, (%rdi)
100001dd7: 48 89 57 08                 	movq	%rdx, 8(%rdi)
100001ddb: 5d                          	popq	%rbp
100001ddc: c3                          	retq
100001ddd: 0f 1f 00                    	nopl	(%rax)

0000000100001de0 PatternPair<And<App<int A::*, Id<int> >, App<int A::*, int> >, test3()::$_0::operator()(A const&) const::'lambda'(auto&&)>::PatternPair(And<App<int A::*, Id<int> >, App<int A::*, int> > const&, test3()::$_0::operator()(A const&) const::'lambda'(auto&&) const&):
100001de0: 55                          	pushq	%rbp
100001de1: 48 89 e5                    	movq	%rsp, %rbp
100001de4: 5d                          	popq	%rbp
100001de5: e9 06 00 00 00              	jmp	6 <__ZN11PatternPairI3AndIJ3AppIM1Ai2IdIiEES1_IS3_iEEEZZ5test3vENK3$_0clERKS2_EUlOT_E_EC2ERKS8_RKSE_>
100001dea: 66 0f 1f 44 00 00           	nopw	(%rax,%rax)

0000000100001df0 PatternPair<And<App<int A::*, Id<int> >, App<int A::*, int> >, test3()::$_0::operator()(A const&) const::'lambda'(auto&&)>::PatternPair(And<App<int A::*, Id<int> >, App<int A::*, int> > const&, test3()::$_0::operator()(A const&) const::'lambda'(auto&&) const&):
100001df0: 55                          	pushq	%rbp
100001df1: 48 89 e5                    	movq	%rsp, %rbp
100001df4: 48 89 37                    	movq	%rsi, (%rdi)
100001df7: 48 89 57 08                 	movq	%rdx, 8(%rdi)
100001dfb: 5d                          	popq	%rbp
100001dfc: c3                          	retq
100001dfd: 0f 1f 00                    	nopl	(%rax)

0000000100001e00 PatternHelper<WildCard>::PatternHelper(WildCard const&):
100001e00: 55                          	pushq	%rbp
100001e01: 48 89 e5                    	movq	%rsp, %rbp
100001e04: 5d                          	popq	%rbp
100001e05: e9 06 00 00 00              	jmp	6 <__ZN13PatternHelperI8WildCardEC2ERKS0_>
100001e0a: 66 0f 1f 44 00 00           	nopw	(%rax,%rax)

0000000100001e10 PatternHelper<WildCard>::PatternHelper(WildCard const&):
100001e10: 55                          	pushq	%rbp
100001e11: 48 89 e5                    	movq	%rsp, %rbp
100001e14: 48 89 37                    	movq	%rsi, (%rdi)
100001e17: 5d                          	popq	%rbp
100001e18: c3                          	retq
100001e19: 0f 1f 80 00 00 00 00        	nopl	(%rax)

0000000100001e20 PatternPair<WildCard, test3()::$_0::operator()(A const&) const::'lambda0'(auto&&)>::PatternPair(WildCard const&, test3()::$_0::operator()(A const&) const::'lambda0'(auto&&) const&):
100001e20: 55                          	pushq	%rbp
100001e21: 48 89 e5                    	movq	%rsp, %rbp
100001e24: 5d                          	popq	%rbp
100001e25: e9 06 00 00 00              	jmp	6 <__ZN11PatternPairI8WildCardZZ5test3vENK3$_0clERK1AEUlOT_E0_EC2ERKS0_RKS7_>
100001e2a: 66 0f 1f 44 00 00           	nopw	(%rax,%rax)

0000000100001e30 PatternPair<WildCard, test3()::$_0::operator()(A const&) const::'lambda0'(auto&&)>::PatternPair(WildCard const&, test3()::$_0::operator()(A const&) const::'lambda0'(auto&&) const&):
100001e30: 55                          	pushq	%rbp
100001e31: 48 89 e5                    	movq	%rsp, %rbp
100001e34: 48 89 37                    	movq	%rsi, (%rdi)
100001e37: 48 89 57 08                 	movq	%rdx, 8(%rdi)
100001e3b: 5d                          	popq	%rbp
100001e3c: c3                          	retq
100001e3d: 0f 1f 00                    	nopl	(%rax)

0000000100001e40 auto MatchHelper<A>::operator()<PatternPair<And<App<int A::*, Id<int> >, App<int A::*, int> >, test3()::$_0::operator()(A const&) const::'lambda'(auto&&)>, PatternPair<WildCard, test3()::$_0::operator()(A const&) const::'lambda0'(auto&&)> >(PatternPair<And<App<int A::*, Id<int> >, App<int A::*, int> >, test3()::$_0::operator()(A const&) const::'lambda'(auto&&)> const&, PatternPair<WildCard, test3()::$_0::operator()(A const&) const::'lambda0'(auto&&)> const&) (.cold.1):
100001e40: 55                          	pushq	%rbp
100001e41: 48 89 e5                    	movq	%rsp, %rbp
100001e44: 48 8d 3d 7a 00 00 00        	leaq	122(%rip), %rdi
100001e4b: 48 8d 35 7e 00 00 00        	leaq	126(%rip), %rsi
100001e52: 48 8d 0d 80 00 00 00        	leaq	128(%rip), %rcx
100001e59: 6a 25                       	pushq	$37
100001e5b: 5a                          	popq	%rdx
100001e5c: e8 33 00 00 00              	callq	51 <dyld_stub_binder+0x100001e94>
100001e61: 66 2e 0f 1f 84 00 00 00 00 00       	nopw	%cs:(%rax,%rax)
100001e6b: 0f 1f 44 00 00              	nopl	(%rax,%rax)

0000000100001e70 Id<int>::value() const (.cold.1):
100001e70: 55                          	pushq	%rbp
100001e71: 48 89 e5                    	movq	%rsp, %rbp
100001e74: 48 8d 3d 66 00 00 00        	leaq	102(%rip), %rdi
100001e7b: 48 8d 35 65 00 00 00        	leaq	101(%rip), %rsi
100001e82: 48 8d 0d 6b 00 00 00        	leaq	107(%rip), %rcx
100001e89: ba 3d 01 00 00              	movl	$317, %edx
100001e8e: e8 01 00 00 00              	callq	1 <dyld_stub_binder+0x100001e94>

Disassembly of section __TEXT,__stubs:

0000000100001e94 __stubs:
100001e94: ff 25 66 11 00 00           	jmpq	*4454(%rip)
100001e9a: ff 25 68 11 00 00           	jmpq	*4456(%rip)

Disassembly of section __TEXT,__stub_helper:

0000000100001ea0 __stub_helper:
100001ea0: 4c 8d 1d 69 11 00 00        	leaq	4457(%rip), %r11
100001ea7: 41 53                       	pushq	%r11
100001ea9: ff 25 51 01 00 00           	jmpq	*337(%rip)
100001eaf: 90                          	nop
100001eb0: 68 00 00 00 00              	pushq	$0
100001eb5: e9 e6 ff ff ff              	jmp	-26 <__stub_helper>
100001eba: 68 14 00 00 00              	pushq	$20
100001ebf: e9 dc ff ff ff              	jmp	-36 <__stub_helper>
